(dp1
S'scene_struct'
p2
(dp3
S'_filter_options'
p4
(dp5
(S'large'
p6
S'blue'
p7
NS'sphere'
p8
tp9
c__builtin__
set
p10
((lp11
I1
atRp12
s(g6
S'green'
p13
S'rubber'
p14
Ntp15
g10
((lp16
I2
atRp17
s(NS'red'
p18
g14
g8
tp19
g10
((lp20
I0
atRp21
s(g6
S'purple'
p22
NNtp23
g10
((lp24
I3
atRp25
s(NS'cyan'
p26
Ng8
tp27
g10
((lp28
I4
atRp29
s(Ng26
g14
g8
tp30
g10
((lp31
I4
atRp32
s(Ng7
g14
g8
tp33
g10
((lp34
I1
atRp35
s(Ng13
g14
Ntp36
g10
((lp37
I2
atRp38
s(g6
g18
Ng8
tp39
g10
((lp40
I0
atRp41
s(Ng18
NNtp42
g10
((lp43
I0
atRp44
s(Ng22
g14
Ntp45
g10
((lp46
I3
atRp47
s(NNg14
g8
tp48
g10
((lp49
I0
aI1
aI2
aI3
aI4
atRp50
s(g6
g26
Ng8
tp51
g10
((lp52
I4
atRp53
s(g6
g7
g14
g8
tp54
g10
((lp55
I1
atRp56
s(g6
g13
NNtp57
g10
((lp58
I2
atRp59
s(g6
g18
g14
Ntp60
g10
((lp61
I0
atRp62
s(g6
g26
g14
Ntp63
g10
((lp64
I4
atRp65
s(g6
NNg8
tp66
g10
((lp67
I0
aI1
aI2
aI3
aI4
atRp68
s(Ng7
Ng8
tp69
g10
((lp70
I1
atRp71
s(g6
g7
NNtp72
g10
((lp73
I1
atRp74
s(Ng18
g14
Ntp75
g10
((lp76
I0
atRp77
s(g6
g22
g14
g8
tp78
g10
((lp79
I3
atRp80
s(NNNg8
tp81
g10
((lp82
I0
aI1
aI2
aI3
aI4
atRp83
s(NNg14
Ntp84
g10
((lp85
I0
aI1
aI2
aI3
aI4
atRp86
s(Ng13
Ng8
tp87
g10
((lp88
I2
atRp89
s(Ng7
g14
Ntp90
g10
((lp91
I1
atRp92
s(g6
g18
NNtp93
g10
((lp94
I0
atRp95
s(Ng22
Ng8
tp96
g10
((lp97
I3
atRp98
s(Ng26
g14
Ntp99
g10
((lp100
I4
atRp101
s(g6
Ng14
g8
tp102
g10
((lp103
I0
aI1
aI2
aI3
aI4
atRp104
s(g6
NNNtp105
g10
((lp106
I0
aI1
aI2
aI3
aI4
atRp107
s(g6
g13
g14
g8
tp108
g10
((lp109
I2
atRp110
s(g6
g7
g14
Ntp111
g10
((lp112
I1
atRp113
s(g6
g22
Ng8
tp114
g10
((lp115
I3
atRp116
s(NNNNtp117
g10
((lp118
I0
aI1
aI2
aI3
aI4
atRp119
s(Ng13
g14
g8
tp120
g10
((lp121
I2
atRp122
s(Ng7
NNtp123
g10
((lp124
I1
atRp125
s(Ng18
Ng8
tp126
g10
((lp127
I0
atRp128
s(Ng22
g14
g8
tp129
g10
((lp130
I3
atRp131
s(g6
g22
g14
Ntp132
g10
((lp133
I3
atRp134
s(Ng26
NNtp135
g10
((lp136
I4
atRp137
s(g6
Ng14
Ntp138
g10
((lp139
I0
aI1
aI2
aI3
aI4
atRp140
s(g6
g26
g14
g8
tp141
g10
((lp142
I4
atRp143
s(g6
g13
Ng8
tp144
g10
((lp145
I2
atRp146
s(Ng13
NNtp147
g10
((lp148
I2
atRp149
s(g6
g18
g14
g8
tp150
g10
((lp151
I0
atRp152
s(Ng22
NNtp153
g10
((lp154
I3
atRp155
s(g6
g26
NNtp156
g10
((lp157
I4
atRp158
ssS'directions'
p159
(dp160
S'above'
p161
cnumpy.core.multiarray
_reconstruct
p162
(cnumpy
ndarray
p163
(I0
tS'b'
tRp164
(I1
(I3
tcnumpy
dtype
p165
(S'f8'
I0
I1
tRp166
(I3
S'<'
NNNI-1
I-1
I0
tbI00
S'\x00\x00\x00\x00\x00\x00\x00\x00\x00\x00\x00\x00\x00\x00\x00\x00\x00\x00\x00\x00\x00\x00\xf0?'
tbsS'front'
p167
g162
(g163
(I0
tS'b'
tRp168
(I1
(I3
tg166
I00
S'\xd7\x8e\x03\xbe\xa0\xf5\x88<\x00\x00\x00\x00\x00\x00\xf0?\x00\x00\x00\x00\x00\x00\x00\x80'
tbsS'below'
p169
g162
(g163
(I0
tS'b'
tRp170
(I1
(I3
tg166
I00
S'\x00\x00\x00\x00\x00\x00\x00\x80\x00\x00\x00\x00\x00\x00\x00\x80\x00\x00\x00\x00\x00\x00\xf0\xbf'
tbsS'right'
p171
g162
(g163
(I0
tS'b'
tRp172
(I1
(I3
tg166
I00
S'\x00\x00\x00\x00\x00\x00\xf0?\xd6\x8e\x03\xbe\xa0\xf5\x98\xbc\x00\x00\x00\x00\x00\x00\x00\x80'
tbsS'left'
p173
g162
(g163
(I0
tS'b'
tRp174
(I1
(I3
tg166
I00
S'\x00\x00\x00\x00\x00\x00\xf0\xbf\xd6\x8e\x03\xbe\xa0\xf5\x98<\x00\x00\x00\x00\x00\x00\x00\x00'
tbsS'behind'
p175
g162
(g163
(I0
tS'b'
tRp176
(I1
(I3
tg166
I00
S'\xd7\x8e\x03\xbe\xa0\xf5\x88\xbc\x00\x00\x00\x00\x00\x00\xf0\xbf\x00\x00\x00\x00\x00\x00\x00\x00'
tbssS'objects'
p177
(lp178
(dp179
S'material'
p180
g14
sS'color'
p181
g18
sS'shape'
p182
g8
sS'color_val'
p183
S'1 0.1 0.1 1'
p184
sS'size'
p185
g6
sS'shape_name'
p186
g8
sS'3d_coords'
p187
(F0.2763783205050282
F-0.069725549562162287
F0.13
tp188
sS'rotation'
p189
F218.08337422548601
sa(dp190
g180
g14
sg181
g7
sg182
g8
sg183
S'0.2 0.5 1 1'
p191
sg185
g6
sg186
g8
sg187
(F-0.37799801284243661
F-0.096482721294968932
F0.13
tp192
sg189
F157.89328927101005
sa(dp193
g180
g14
sg181
g13
sg182
g8
sg183
S'0.2 1 0 1'
p194
sg185
g6
sg186
g8
sg187
(F0.020190971346305764
F0.23424057619068778
F0.13
tp195
sg189
F354.16591621722205
sa(dp196
g180
g14
sg181
g22
sg182
g8
sg183
S'0.8 0.2 1 1'
p197
sg185
g6
sg186
g8
sg187
(F-0.45443285301782121
F0.31442815367022597
F0.13
tp198
sg189
F252.69669859252193
sa(dp199
g180
g14
sg181
g26
sg182
g8
sg183
S'0.2 1 1 1'
p200
sg185
g6
sg186
g8
sg187
(F0.39926257638445706
F0.37933347159034497
F0.13
tp201
sg189
F66.643829457164287
sasS'split'
p202
S'none'
p203
sS'relationships'
p204
(dp205
g171
(lp206
(lp207
a(lp208
I0
aI2
aa(lp209
I0
aI4
aa(lp210
I2
aa(lp211
asg175
(lp212
(lp213
a(lp214
a(lp215
I0
aI1
aa(lp216
I1
aa(lp217
I0
aasg167
(lp218
(lp219
I2
aI4
aa(lp220
I2
aI3
aa(lp221
a(lp222
a(lp223
asg173
(lp224
(lp225
I1
aI2
aa(lp226
a(lp227
I1
aI3
aa(lp228
a(lp229
I2
aasssS'program'
p230
(lp231
(lp232
(dp233
S'inputs'
p234
(lp235
sS'type'
p236
Vscene
p237
sS'_output'
p238
(lp239
I0
aI1
aI2
aI3
aI4
asa(dp240
S'side_inputs'
p241
(lp242
Vcyan
p243
asg234
(lp244
I0
asg236
Vfilter_color
p245
sg238
(lp246
I4
asa(dp247
g241
(lp248
Vsphere
p249
asg234
(lp250
I1
asg236
Vfilter_shape
p251
sg238
(lp252
I4
asa(dp253
g234
(lp254
I2
asg236
S'exist'
p255
sg238
I01
sa(dp256
g241
(lp257
g175
asg234
(lp258
I2
asg236
S'relate'
p259
sg238
g217
sa(dp260
g241
(lp261
g18
asg234
(lp262
I4
asg236
Vfilter_color
p263
sg238
(lp264
I0
asa(dp265
g241
(lp266
g8
asg234
(lp267
I5
asg236
Vfilter_shape
p268
sg238
(lp269
I0
asa(dp270
g234
(lp271
I6
asg236
g255
sg238
I01
saa(lp272
(dp273
g234
(lp274
sg236
Vscene
p275
sg238
(lp276
I0
aI1
aI2
aI3
aI4
asa(dp277
g241
(lp278
g13
asg234
(lp279
I0
asg236
Vfilter_color
p280
sg238
(lp281
I2
asa(dp282
g241
(lp283
g8
asg234
(lp284
I1
asg236
Vfilter_shape
p285
sg238
(lp286
I2
asa(dp287
g234
(lp288
I2
asg236
g255
sg238
I01
sa(dp289
g241
(lp290
g173
asg234
(lp291
I2
asg236
g259
sg238
g227
sa(dp292
g241
(lp293
g22
asg234
(lp294
I4
asg236
Vfilter_color
p295
sg238
(lp296
I3
asa(dp297
g241
(lp298
g8
asg234
(lp299
I5
asg236
Vfilter_shape
p300
sg238
(lp301
I3
asa(dp302
g234
(lp303
I6
asg236
g255
sg238
I01
saa(lp304
(dp305
g234
(lp306
sg236
Vscene
p307
sg238
(lp308
I0
aI1
aI2
aI3
aI4
asa(dp309
g241
(lp310
g18
asg234
(lp311
I0
asg236
Vfilter_color
p312
sg238
(lp313
I0
asa(dp314
g241
(lp315
g14
asg234
(lp316
I1
asg236
Vfilter_material
p317
sg238
(lp318
I0
asa(dp319
g241
(lp320
g8
asg234
(lp321
I2
asg236
Vfilter_shape
p322
sg238
(lp323
I0
asa(dp324
g234
(lp325
I3
asg236
g255
sg238
I01
sa(dp326
g241
(lp327
g173
asg234
(lp328
I3
asg236
g259
sg238
g225
sa(dp329
g241
(lp330
g7
asg234
(lp331
I5
asg236
Vfilter_color
p332
sg238
(lp333
I1
asa(dp334
g241
(lp335
g14
asg234
(lp336
I6
asg236
Vfilter_material
p337
sg238
(lp338
I1
asa(dp339
g241
(lp340
g8
asg234
(lp341
I7
asg236
Vfilter_shape
p342
sg238
(lp343
I1
asa(dp344
g234
(lp345
I8
asg236
g255
sg238
I01
saa(lp346
(dp347
g234
(lp348
sg236
Vscene
p349
sg238
(lp350
I0
aI1
aI2
aI3
aI4
asa(dp351
g241
(lp352
g22
asg234
(lp353
I0
asg236
Vfilter_color
p354
sg238
(lp355
I3
asa(dp356
g241
(lp357
g14
asg234
(lp358
I1
asg236
Vfilter_material
p359
sg238
(lp360
I3
asa(dp361
g241
(lp362
g8
asg234
(lp363
I2
asg236
Vfilter_shape
p364
sg238
(lp365
I3
asa(dp366
g234
(lp367
I3
asg236
g255
sg238
I01
sa(dp368
g241
(lp369
g175
asg234
(lp370
I3
asg236
g259
sg238
g216
sa(dp371
g241
(lp372
g7
asg234
(lp373
I5
asg236
Vfilter_color
p374
sg238
(lp375
I1
asa(dp376
g241
(lp377
g14
asg234
(lp378
I6
asg236
Vfilter_material
p379
sg238
(lp380
I1
asa(dp381
g241
(lp382
g8
asg234
(lp383
I7
asg236
Vfilter_shape
p384
sg238
(lp385
I1
asa(dp386
g234
(lp387
I8
asg236
g255
sg238
I01
saa(lp388
g273
ag277
ag282
ag287
a(dp389
g241
(lp390
g171
asg234
(lp391
I2
asg236
g259
sg238
g209
sa(dp392
g241
(lp393
g26
asg234
(lp394
I4
asg236
Vfilter_color
p395
sg238
(lp396
I4
asa(dp397
g241
(lp398
g14
asg234
(lp399
I5
asg236
Vfilter_material
p400
sg238
(lp401
I4
asa(dp402
g241
(lp403
g8
asg234
(lp404
I6
asg236
Vfilter_shape
p405
sg238
(lp406
I4
asa(dp407
g234
(lp408
I7
asg236
g255
sg238
I01
saa(lp409
g305
ag309
ag314
ag319
ag324
a(dp410
g241
(lp411
g173
asg234
(lp412
I3
asg236
g259
sg238
g225
sa(dp413
g241
(lp414
g13
asg234
(lp415
I5
asg236
Vfilter_color
p416
sg238
(lp417
I2
asa(dp418
g241
(lp419
g14
asg234
(lp420
I6
asg236
Vfilter_material
p421
sg238
(lp422
I2
asa(dp423
g241
(lp424
g8
asg234
(lp425
I7
asg236
Vfilter_shape
p426
sg238
(lp427
I2
asa(dp428
g234
(lp429
I8
asg236
g255
sg238
I01
saa(lp430
g233
a(dp431
g241
(lp432
g243
asg234
(lp433
I0
asg236
Vfilter_color
p434
sg238
(lp435
I4
asa(dp436
g241
(lp437
Vrubber
p438
asg234
(lp439
I1
asg236
Vfilter_material
p440
sg238
(lp441
I4
asa(dp442
g241
(lp443
g249
asg234
(lp444
I2
asg236
Vfilter_shape
p445
sg238
(lp446
I4
asa(dp447
g234
(lp448
I3
asg236
g255
sg238
I01
sa(dp449
g241
(lp450
g173
asg234
(lp451
I3
asg236
g259
sg238
g229
sa(dp452
g241
(lp453
g13
asg234
(lp454
I5
asg236
Vfilter_color
p455
sg238
(lp456
I2
asa(dp457
g241
(lp458
g8
asg234
(lp459
I6
asg236
Vfilter_shape
p460
sg238
(lp461
I2
asa(dp462
g234
(lp463
I7
asg236
g255
sg238
I01
saa(lp464
(dp465
g234
(lp466
sg236
Vscene
p467
sg238
(lp468
I0
aI1
aI2
aI3
aI4
asa(dp469
g241
(lp470
g7
asg234
(lp471
I0
asg236
Vfilter_color
p472
sg238
(lp473
I1
asa(dp474
g241
(lp475
g14
asg234
(lp476
I1
asg236
Vfilter_material
p477
sg238
(lp478
I1
asa(dp479
g241
(lp480
g8
asg234
(lp481
I2
asg236
Vfilter_shape
p482
sg238
(lp483
I1
asa(dp484
g234
(lp485
I3
asg236
g255
sg238
I01
sa(dp486
g241
(lp487
g171
asg234
(lp488
I3
asg236
g259
sg238
g208
sa(dp489
g241
(lp490
g18
asg234
(lp491
I5
asg236
Vfilter_color
p492
sg238
(lp493
I0
asa(dp494
g241
(lp495
g14
asg234
(lp496
I6
asg236
Vfilter_material
p497
sg238
(lp498
I0
asa(dp499
g241
(lp500
g8
asg234
(lp501
I7
asg236
Vfilter_shape
p502
sg238
(lp503
I0
asa(dp504
g234
(lp505
I8
asg236
g255
sg238
I01
saa(lp506
g465
a(dp507
g241
(lp508
g7
asg234
(lp509
I0
asg236
Vfilter_color
p510
sg238
(lp511
I1
asa(dp512
g241
(lp513
g8
asg234
(lp514
I1
asg236
Vfilter_shape
p515
sg238
(lp516
I1
asa(dp517
g234
(lp518
I2
asg236
g255
sg238
I01
sa(dp519
g241
(lp520
g167
asg234
(lp521
I2
asg236
g259
sg238
g220
sa(dp522
g241
(lp523
g22
asg234
(lp524
I4
asg236
Vfilter_color
p525
sg238
(lp526
I3
asa(dp527
g241
(lp528
g14
asg234
(lp529
I5
asg236
Vfilter_material
p530
sg238
(lp531
I3
asa(dp532
g241
(lp533
g8
asg234
(lp534
I6
asg236
Vfilter_shape
p535
sg238
(lp536
I3
asa(dp537
g234
(lp538
I7
asg236
g255
sg238
I01
saa(lp539
g305
ag309
ag314
ag319
ag324
a(dp540
g241
(lp541
g173
asg234
(lp542
I3
asg236
g259
sg238
g225
sa(dp543
g241
(lp544
g13
asg234
(lp545
I5
asg236
Vfilter_color
p546
sg238
(lp547
I2
asa(dp548
g241
(lp549
g8
asg234
(lp550
I6
asg236
Vfilter_shape
p551
sg238
(lp552
I2
asa(dp553
g234
(lp554
I7
asg236
g255
sg238
I01
saa(lp555
g273
ag277
ag282
ag287
a(dp556
g241
(lp557
g171
asg234
(lp558
I2
asg236
g259
sg238
g209
sa(dp559
g241
(lp560
g18
asg234
(lp561
I4
asg236
Vfilter_color
p562
sg238
(lp563
I0
asa(dp564
g241
(lp565
g14
asg234
(lp566
I5
asg236
Vfilter_material
p567
sg238
(lp568
I0
asa(dp569
g241
(lp570
g8
asg234
(lp571
I6
asg236
Vfilter_shape
p572
sg238
(lp573
I0
asa(dp574
g234
(lp575
I7
asg236
g255
sg238
I01
saa(lp576
g465
ag507
ag512
ag517
a(dp577
g241
(lp578
g167
asg234
(lp579
I2
asg236
g259
sg238
g220
sa(dp580
g241
(lp581
g22
asg234
(lp582
I4
asg236
Vfilter_color
p583
sg238
(lp584
I3
asa(dp585
g241
(lp586
g8
asg234
(lp587
I5
asg236
Vfilter_shape
p588
sg238
(lp589
I3
asa(dp590
g234
(lp591
I6
asg236
g255
sg238
I01
saa(lp592
g233
a(dp593
g241
(lp594
g26
asg234
(lp595
I0
asg236
Vfilter_color
p596
sg238
(lp597
I4
asa(dp598
g241
(lp599
g14
asg234
(lp600
I1
asg236
Vfilter_material
p601
sg238
(lp602
I4
asa(dp603
g241
(lp604
g8
asg234
(lp605
I2
asg236
Vfilter_shape
p606
sg238
(lp607
I4
asa(dp608
g234
(lp609
I3
asg236
g255
sg238
I01
sa(dp610
g241
(lp611
g173
asg234
(lp612
I3
asg236
g259
sg238
g229
sa(dp613
g241
(lp614
g13
asg234
(lp615
I5
asg236
Vfilter_color
p616
sg238
(lp617
I2
asa(dp618
g241
(lp619
g8
asg234
(lp620
I6
asg236
Vfilter_shape
p621
sg238
(lp622
I2
asa(dp623
g234
(lp624
I7
asg236
g255
sg238
I01
saa(lp625
g465
ag507
ag512
ag517
a(dp626
g241
(lp627
g171
asg234
(lp628
I2
asg236
g259
sg238
g208
sa(dp629
g241
(lp630
g13
asg234
(lp631
I4
asg236
Vfilter_color
p632
sg238
(lp633
I2
asa(dp634
g241
(lp635
g14
asg234
(lp636
I5
asg236
Vfilter_material
p637
sg238
(lp638
I2
asa(dp639
g241
(lp640
g8
asg234
(lp641
I6
asg236
Vfilter_shape
p642
sg238
(lp643
I2
asa(dp644
g234
(lp645
I7
asg236
g255
sg238
I01
saa(lp646
g305
ag309
ag314
ag319
ag324
a(dp647
g241
(lp648
g167
asg234
(lp649
I3
asg236
g259
sg238
g219
sa(dp650
g241
(lp651
g26
asg234
(lp652
I5
asg236
Vfilter_color
p653
sg238
(lp654
I4
asa(dp655
g241
(lp656
g14
asg234
(lp657
I6
asg236
Vfilter_material
p658
sg238
(lp659
I4
asa(dp660
g241
(lp661
g8
asg234
(lp662
I7
asg236
Vfilter_shape
p663
sg238
(lp664
I4
asa(dp665
g234
(lp666
I8
asg236
g255
sg238
I01
saa(lp667
g465
ag507
ag512
ag517
a(dp668
g241
(lp669
g167
asg234
(lp670
I2
asg236
g259
sg238
g220
sa(dp671
g241
(lp672
g13
asg234
(lp673
I4
asg236
Vfilter_color
p674
sg238
(lp675
I2
asa(dp676
g241
(lp677
g8
asg234
(lp678
I5
asg236
Vfilter_shape
p679
sg238
(lp680
I2
asa(dp681
g234
(lp682
I6
asg236
g255
sg238
I01
saa(lp683
g305
a(dp684
g241
(lp685
g18
asg234
(lp686
I0
asg236
Vfilter_color
p687
sg238
(lp688
I0
asa(dp689
g241
(lp690
g8
asg234
(lp691
I1
asg236
Vfilter_shape
p692
sg238
(lp693
I0
asa(dp694
g234
(lp695
I2
asg236
g255
sg238
I01
sa(dp696
g241
(lp697
g173
asg234
(lp698
I2
asg236
g259
sg238
g225
sa(dp699
g241
(lp700
g7
asg234
(lp701
I4
asg236
Vfilter_color
p702
sg238
(lp703
I1
asa(dp704
g241
(lp705
g8
asg234
(lp706
I5
asg236
Vfilter_shape
p707
sg238
(lp708
I1
asa(dp709
g234
(lp710
I6
asg236
g255
sg238
I01
saa(lp711
g273
a(dp712
g241
(lp713
g13
asg234
(lp714
I0
asg236
Vfilter_color
p715
sg238
(lp716
I2
asa(dp717
g241
(lp718
g14
asg234
(lp719
I1
asg236
Vfilter_material
p720
sg238
(lp721
I2
asa(dp722
g241
(lp723
g8
asg234
(lp724
I2
asg236
Vfilter_shape
p725
sg238
(lp726
I2
asa(dp727
g234
(lp728
I3
asg236
g255
sg238
I01
sa(dp729
g241
(lp730
g173
asg234
(lp731
I3
asg236
g259
sg238
g227
sa(dp732
g241
(lp733
g22
asg234
(lp734
I5
asg236
Vfilter_color
p735
sg238
(lp736
I3
asa(dp737
g241
(lp738
g8
asg234
(lp739
I6
asg236
Vfilter_shape
p740
sg238
(lp741
I3
asa(dp742
g234
(lp743
I7
asg236
g255
sg238
I01
saa(lp744
g273
ag712
ag717
ag722
ag727
a(dp745
g241
(lp746
g175
asg234
(lp747
I3
asg236
g259
sg238
g215
sa(dp748
g241
(lp749
g7
asg234
(lp750
I5
asg236
Vfilter_color
p751
sg238
(lp752
I1
asa(dp753
g241
(lp754
g14
asg234
(lp755
I6
asg236
Vfilter_material
p756
sg238
(lp757
I1
asa(dp758
g241
(lp759
g8
asg234
(lp760
I7
asg236
Vfilter_shape
p761
sg238
(lp762
I1
asa(dp763
g234
(lp764
I8
asg236
g255
sg238
I01
saa(lp765
g273
ag712
ag717
ag722
ag727
a(dp766
g241
(lp767
g171
asg234
(lp768
I3
asg236
g259
sg238
g209
sa(dp769
g241
(lp770
g26
asg234
(lp771
I5
asg236
Vfilter_color
p772
sg238
(lp773
I4
asa(dp774
g241
(lp775
g8
asg234
(lp776
I6
asg236
Vfilter_shape
p777
sg238
(lp778
I4
asa(dp779
g234
(lp780
I7
asg236
g255
sg238
I01
saa(lp781
g233
a(dp782
g241
(lp783
g243
asg234
(lp784
I0
asg236
Vfilter_color
p785
sg238
(lp786
I4
asa(dp787
g241
(lp788
g249
asg234
(lp789
I1
asg236
Vfilter_shape
p790
sg238
(lp791
I4
asa(dp792
g234
(lp793
I2
asg236
g255
sg238
I01
sa(dp794
g241
(lp795
g173
asg234
(lp796
I2
asg236
g259
sg238
g229
sa(dp797
g241
(lp798
g13
asg234
(lp799
I4
asg236
Vfilter_color
p800
sg238
(lp801
I2
asa(dp802
g241
(lp803
g8
asg234
(lp804
I5
asg236
Vfilter_shape
p805
sg238
(lp806
I2
asa(dp807
g234
(lp808
I6
asg236
g255
sg238
I01
saa(lp809
g273
a(dp810
g241
(lp811
Vgreen
p812
asg234
(lp813
I0
asg236
Vfilter_color
p814
sg238
(lp815
I2
asa(dp816
g241
(lp817
g438
asg234
(lp818
I1
asg236
Vfilter_material
p819
sg238
(lp820
I2
asa(dp821
g241
(lp822
g249
asg234
(lp823
I2
asg236
Vfilter_shape
p824
sg238
(lp825
I2
asa(dp826
g234
(lp827
I3
asg236
g255
sg238
I01
sa(dp828
g241
(lp829
g173
asg234
(lp830
I3
asg236
g259
sg238
g227
sa(dp831
g241
(lp832
g7
asg234
(lp833
I5
asg236
Vfilter_color
p834
sg238
(lp835
I1
asa(dp836
g241
(lp837
g8
asg234
(lp838
I6
asg236
Vfilter_shape
p839
sg238
(lp840
I1
asa(dp841
g234
(lp842
I7
asg236
g255
sg238
I01
saa(lp843
g233
a(dp844
g241
(lp845
g26
asg234
(lp846
I0
asg236
Vfilter_color
p847
sg238
(lp848
I4
asa(dp849
g241
(lp850
g8
asg234
(lp851
I1
asg236
Vfilter_shape
p852
sg238
(lp853
I4
asa(dp854
g234
(lp855
I2
asg236
g255
sg238
I01
sa(dp856
g241
(lp857
g173
asg234
(lp858
I2
asg236
g259
sg238
g229
sa(dp859
g241
(lp860
g13
asg234
(lp861
I4
asg236
Vfilter_color
p862
sg238
(lp863
I2
asa(dp864
g241
(lp865
g14
asg234
(lp866
I5
asg236
Vfilter_material
p867
sg238
(lp868
I2
asa(dp869
g241
(lp870
g8
asg234
(lp871
I6
asg236
Vfilter_shape
p872
sg238
(lp873
I2
asa(dp874
g234
(lp875
I7
asg236
g255
sg238
I01
saa(lp876
g273
ag712
ag717
ag722
ag727
a(dp877
g241
(lp878
g175
asg234
(lp879
I3
asg236
g259
sg238
g215
sa(dp880
g241
(lp881
g18
asg234
(lp882
I5
asg236
Vfilter_color
p883
sg238
(lp884
I0
asa(dp885
g241
(lp886
g14
asg234
(lp887
I6
asg236
Vfilter_material
p888
sg238
(lp889
I0
asa(dp890
g241
(lp891
g8
asg234
(lp892
I7
asg236
Vfilter_shape
p893
sg238
(lp894
I0
asa(dp895
g234
(lp896
I8
asg236
g255
sg238
I01
saa(lp897
g233
ag240
ag247
ag253
a(dp898
g241
(lp899
g173
asg234
(lp900
I2
asg236
g259
sg238
g229
sa(dp901
g241
(lp902
g13
asg234
(lp903
I4
asg236
Vfilter_color
p904
sg238
(lp905
I2
asa(dp906
g241
(lp907
g14
asg234
(lp908
I5
asg236
Vfilter_material
p909
sg238
(lp910
I2
asa(dp911
g241
(lp912
g8
asg234
(lp913
I6
asg236
Vfilter_shape
p914
sg238
(lp915
I2
asa(dp916
g234
(lp917
I7
asg236
g255
sg238
I01
saa(lp918
g273
ag712
ag717
ag722
ag727
a(dp919
g241
(lp920
g173
asg234
(lp921
I3
asg236
g259
sg238
g227
sa(dp922
g241
(lp923
g7
asg234
(lp924
I5
asg236
Vfilter_color
p925
sg238
(lp926
I1
asa(dp927
g241
(lp928
g14
asg234
(lp929
I6
asg236
Vfilter_material
p930
sg238
(lp931
I1
asa(dp932
g241
(lp933
g8
asg234
(lp934
I7
asg236
Vfilter_shape
p935
sg238
(lp936
I1
asa(dp937
g234
(lp938
I8
asg236
g255
sg238
I01
saa(lp939
g305
ag684
ag689
ag694
a(dp940
g241
(lp941
g173
asg234
(lp942
I2
asg236
g259
sg238
g225
sa(dp943
g241
(lp944
g13
asg234
(lp945
I4
asg236
Vfilter_color
p946
sg238
(lp947
I2
asa(dp948
g241
(lp949
g14
asg234
(lp950
I5
asg236
Vfilter_material
p951
sg238
(lp952
I2
asa(dp953
g241
(lp954
g8
asg234
(lp955
I6
asg236
Vfilter_shape
p956
sg238
(lp957
I2
asa(dp958
g234
(lp959
I7
asg236
g255
sg238
I01
saa(lp960
g465
ag469
ag474
ag479
ag484
a(dp961
g241
(lp962
g167
asg234
(lp963
I3
asg236
g259
sg238
g220
sa(dp964
g241
(lp965
g22
asg234
(lp966
I5
asg236
Vfilter_color
p967
sg238
(lp968
I3
asa(dp969
g241
(lp970
g14
asg234
(lp971
I6
asg236
Vfilter_material
p972
sg238
(lp973
I3
asa(dp974
g241
(lp975
g8
asg234
(lp976
I7
asg236
Vfilter_shape
p977
sg238
(lp978
I3
asa(dp979
g234
(lp980
I8
asg236
g255
sg238
I01
saa(lp981
g233
ag844
ag849
ag854
a(dp982
g241
(lp983
g173
asg234
(lp984
I2
asg236
g259
sg238
g229
sa(dp985
g241
(lp986
g13
asg234
(lp987
I4
asg236
Vfilter_color
p988
sg238
(lp989
I2
asa(dp990
g241
(lp991
g8
asg234
(lp992
I5
asg236
Vfilter_shape
p993
sg238
(lp994
I2
asa(dp995
g234
(lp996
I6
asg236
g255
sg238
I01
saa(lp997
g273
ag277
ag282
ag287
a(dp998
g241
(lp999
g175
asg234
(lp1000
I2
asg236
g259
sg238
g215
sa(dp1001
g241
(lp1002
g7
asg234
(lp1003
I4
asg236
Vfilter_color
p1004
sg238
(lp1005
I1
asa(dp1006
g241
(lp1007
g14
asg234
(lp1008
I5
asg236
Vfilter_material
p1009
sg238
(lp1010
I1
asa(dp1011
g241
(lp1012
g8
asg234
(lp1013
I6
asg236
Vfilter_shape
p1014
sg238
(lp1015
I1
asa(dp1016
g234
(lp1017
I7
asg236
g255
sg238
I01
saa(lp1018
g273
ag810
ag816
ag821
ag826
a(dp1019
g241
(lp1020
g171
asg234
(lp1021
I3
asg236
g259
sg238
g209
sa(dp1022
g241
(lp1023
g26
asg234
(lp1024
I5
asg236
Vfilter_color
p1025
sg238
(lp1026
I4
asa(dp1027
g241
(lp1028
g8
asg234
(lp1029
I6
asg236
Vfilter_shape
p1030
sg238
(lp1031
I4
asa(dp1032
g234
(lp1033
I7
asg236
g255
sg238
I01
saa(lp1034
g305
ag684
ag689
ag694
a(dp1035
g241
(lp1036
g167
asg234
(lp1037
I2
asg236
g259
sg238
g219
sa(dp1038
g241
(lp1039
g26
asg234
(lp1040
I4
asg236
Vfilter_color
p1041
sg238
(lp1042
I4
asa(dp1043
g241
(lp1044
g14
asg234
(lp1045
I5
asg236
Vfilter_material
p1046
sg238
(lp1047
I4
asa(dp1048
g241
(lp1049
g8
asg234
(lp1050
I6
asg236
Vfilter_shape
p1051
sg238
(lp1052
I4
asa(dp1053
g234
(lp1054
I7
asg236
g255
sg238
I01
saa(lp1055
g273
ag810
ag816
ag821
ag826
a(dp1056
g241
(lp1057
g171
asg234
(lp1058
I3
asg236
g259
sg238
g209
sa(dp1059
g241
(lp1060
g26
asg234
(lp1061
I5
asg236
Vfilter_color
p1062
sg238
(lp1063
I4
asa(dp1064
g241
(lp1065
g14
asg234
(lp1066
I6
asg236
Vfilter_material
p1067
sg238
(lp1068
I4
asa(dp1069
g241
(lp1070
g8
asg234
(lp1071
I7
asg236
Vfilter_shape
p1072
sg238
(lp1073
I4
asa(dp1074
g234
(lp1075
I8
asg236
g255
sg238
I01
saa(lp1076
g347
ag351
ag356
ag361
ag366
a(dp1077
g241
(lp1078
g175
asg234
(lp1079
I3
asg236
g259
sg238
g216
sa(dp1080
g241
(lp1081
g7
asg234
(lp1082
I5
asg236
Vfilter_color
p1083
sg238
(lp1084
I1
asa(dp1085
g241
(lp1086
g8
asg234
(lp1087
I6
asg236
Vfilter_shape
p1088
sg238
(lp1089
I1
asa(dp1090
g234
(lp1091
I7
asg236
g255
sg238
I01
saa(lp1092
g305
ag684
ag689
ag694
a(dp1093
g241
(lp1094
g167
asg234
(lp1095
I2
asg236
g259
sg238
g219
sa(dp1096
g241
(lp1097
g13
asg234
(lp1098
I4
asg236
Vfilter_color
p1099
sg238
(lp1100
I2
asa(dp1101
g241
(lp1102
g8
asg234
(lp1103
I5
asg236
Vfilter_shape
p1104
sg238
(lp1105
I2
asa(dp1106
g234
(lp1107
I6
asg236
g255
sg238
I01
saa(lp1108
g305
ag309
ag314
ag319
ag324
a(dp1109
g241
(lp1110
g173
asg234
(lp1111
I3
asg236
g259
sg238
g225
sa(dp1112
g241
(lp1113
g7
asg234
(lp1114
I5
asg236
Vfilter_color
p1115
sg238
(lp1116
I1
asa(dp1117
g241
(lp1118
g8
asg234
(lp1119
I6
asg236
Vfilter_shape
p1120
sg238
(lp1121
I1
asa(dp1122
g234
(lp1123
I7
asg236
g255
sg238
I01
saa(lp1124
g233
ag593
ag598
ag603
ag608
a(dp1125
g241
(lp1126
g175
asg234
(lp1127
I3
asg236
g259
sg238
g217
sa(dp1128
g241
(lp1129
g18
asg234
(lp1130
I5
asg236
Vfilter_color
p1131
sg238
(lp1132
I0
asa(dp1133
g241
(lp1134
g14
asg234
(lp1135
I6
asg236
Vfilter_material
p1136
sg238
(lp1137
I0
asa(dp1138
g241
(lp1139
g8
asg234
(lp1140
I7
asg236
Vfilter_shape
p1141
sg238
(lp1142
I0
asa(dp1143
g234
(lp1144
I8
asg236
g255
sg238
I01
saa(lp1145
g273
ag277
ag282
ag287
a(dp1146
g241
(lp1147
g175
asg234
(lp1148
I2
asg236
g259
sg238
g215
sa(dp1149
g241
(lp1150
g18
asg234
(lp1151
I4
asg236
Vfilter_color
p1152
sg238
(lp1153
I0
asa(dp1154
g241
(lp1155
g14
asg234
(lp1156
I5
asg236
Vfilter_material
p1157
sg238
(lp1158
I0
asa(dp1159
g241
(lp1160
g8
asg234
(lp1161
I6
asg236
Vfilter_shape
p1162
sg238
(lp1163
I0
asa(dp1164
g234
(lp1165
I7
asg236
g255
sg238
I01
saa(lp1166
g273
ag712
ag717
ag722
ag727
a(dp1167
g241
(lp1168
g173
asg234
(lp1169
I3
asg236
g259
sg238
g227
sa(dp1170
g241
(lp1171
g22
asg234
(lp1172
I5
asg236
Vfilter_color
p1173
sg238
(lp1174
I3
asa(dp1175
g241
(lp1176
g14
asg234
(lp1177
I6
asg236
Vfilter_material
p1178
sg238
(lp1179
I3
asa(dp1180
g241
(lp1181
g8
asg234
(lp1182
I7
asg236
Vfilter_shape
p1183
sg238
(lp1184
I3
asa(dp1185
g234
(lp1186
I8
asg236
g255
sg238
I01
saa(lp1187
g273
ag712
ag717
ag722
ag727
a(dp1188
g241
(lp1189
g175
asg234
(lp1190
I3
asg236
g259
sg238
g215
sa(dp1191
g241
(lp1192
g7
asg234
(lp1193
I5
asg236
Vfilter_color
p1194
sg238
(lp1195
I1
asa(dp1196
g241
(lp1197
g8
asg234
(lp1198
I6
asg236
Vfilter_shape
p1199
sg238
(lp1200
I1
asa(dp1201
g234
(lp1202
I7
asg236
g255
sg238
I01
saa(lp1203
g273
ag277
ag282
ag287
a(dp1204
g241
(lp1205
g173
asg234
(lp1206
I2
asg236
g259
sg238
g227
sa(dp1207
g241
(lp1208
g22
asg234
(lp1209
I4
asg236
Vfilter_color
p1210
sg238
(lp1211
I3
asa(dp1212
g241
(lp1213
g14
asg234
(lp1214
I5
asg236
Vfilter_material
p1215
sg238
(lp1216
I3
asa(dp1217
g241
(lp1218
g8
asg234
(lp1219
I6
asg236
Vfilter_shape
p1220
sg238
(lp1221
I3
asa(dp1222
g234
(lp1223
I7
asg236
g255
sg238
I01
saa(lp1224
g273
ag810
ag816
ag821
ag826
a(dp1225
g241
(lp1226
g175
asg234
(lp1227
I3
asg236
g259
sg238
g215
sa(dp1228
g241
(lp1229
g7
asg234
(lp1230
I5
asg236
Vfilter_color
p1231
sg238
(lp1232
I1
asa(dp1233
g241
(lp1234
g8
asg234
(lp1235
I6
asg236
Vfilter_shape
p1236
sg238
(lp1237
I1
asa(dp1238
g234
(lp1239
I7
asg236
g255
sg238
I01
saa(lp1240
g347
ag351
ag356
ag361
ag366
a(dp1241
g241
(lp1242
g171
asg234
(lp1243
I3
asg236
g259
sg238
g210
sa(dp1244
g241
(lp1245
g13
asg234
(lp1246
I5
asg236
Vfilter_color
p1247
sg238
(lp1248
I2
asa(dp1249
g241
(lp1250
g14
asg234
(lp1251
I6
asg236
Vfilter_material
p1252
sg238
(lp1253
I2
asa(dp1254
g241
(lp1255
g8
asg234
(lp1256
I7
asg236
Vfilter_shape
p1257
sg238
(lp1258
I2
asa(dp1259
g234
(lp1260
I8
asg236
g255
sg238
I01
saa(lp1261
g273
ag277
ag282
ag287
a(dp1262
g241
(lp1263
g173
asg234
(lp1264
I2
asg236
g259
sg238
g227
sa(dp1265
g241
(lp1266
g7
asg234
(lp1267
I4
asg236
Vfilter_color
p1268
sg238
(lp1269
I1
asa(dp1270
g241
(lp1271
g14
asg234
(lp1272
I5
asg236
Vfilter_material
p1273
sg238
(lp1274
I1
asa(dp1275
g241
(lp1276
g8
asg234
(lp1277
I6
asg236
Vfilter_shape
p1278
sg238
(lp1279
I1
asa(dp1280
g234
(lp1281
I7
asg236
g255
sg238
I01
saa(lp1282
g273
ag810
ag816
ag821
ag826
a(dp1283
g241
(lp1284
g175
asg234
(lp1285
I3
asg236
g259
sg238
g215
sa(dp1286
g241
(lp1287
g7
asg234
(lp1288
I5
asg236
Vfilter_color
p1289
sg238
(lp1290
I1
asa(dp1291
g241
(lp1292
g14
asg234
(lp1293
I6
asg236
Vfilter_material
p1294
sg238
(lp1295
I1
asa(dp1296
g241
(lp1297
g8
asg234
(lp1298
I7
asg236
Vfilter_shape
p1299
sg238
(lp1300
I1
asa(dp1301
g234
(lp1302
I8
asg236
g255
sg238
I01
saa(lp1303
g273
ag712
ag717
ag722
ag727
a(dp1304
g241
(lp1305
g175
asg234
(lp1306
I3
asg236
g259
sg238
g215
sa(dp1307
g241
(lp1308
g18
asg234
(lp1309
I5
asg236
Vfilter_color
p1310
sg238
(lp1311
I0
asa(dp1312
g241
(lp1313
g8
asg234
(lp1314
I6
asg236
Vfilter_shape
p1315
sg238
(lp1316
I0
asa(dp1317
g234
(lp1318
I7
asg236
g255
sg238
I01
saa(lp1319
g273
ag277
ag282
ag287
a(dp1320
g241
(lp1321
g171
asg234
(lp1322
I2
asg236
g259
sg238
g209
sa(dp1323
g241
(lp1324
g26
asg234
(lp1325
I4
asg236
Vfilter_color
p1326
sg238
(lp1327
I4
asa(dp1328
g241
(lp1329
g8
asg234
(lp1330
I5
asg236
Vfilter_shape
p1331
sg238
(lp1332
I4
asa(dp1333
g234
(lp1334
I6
asg236
g255
sg238
I01
saa(lp1335
g273
ag810
ag816
ag821
ag826
a(dp1336
g241
(lp1337
g175
asg234
(lp1338
I3
asg236
g259
sg238
g215
sa(dp1339
g241
(lp1340
g18
asg234
(lp1341
I5
asg236
Vfilter_color
p1342
sg238
(lp1343
I0
asa(dp1344
g241
(lp1345
g8
asg234
(lp1346
I6
asg236
Vfilter_shape
p1347
sg238
(lp1348
I0
asa(dp1349
g234
(lp1350
I7
asg236
g255
sg238
I01
saa(lp1351
g233
ag240
ag247
ag253
a(dp1352
g241
(lp1353
g175
asg234
(lp1354
I2
asg236
g259
sg238
g217
sa(dp1355
g241
(lp1356
g18
asg234
(lp1357
I4
asg236
Vfilter_color
p1358
sg238
(lp1359
I0
asa(dp1360
g241
(lp1361
g14
asg234
(lp1362
I5
asg236
Vfilter_material
p1363
sg238
(lp1364
I0
asa(dp1365
g241
(lp1366
g8
asg234
(lp1367
I6
asg236
Vfilter_shape
p1368
sg238
(lp1369
I0
asa(dp1370
g234
(lp1371
I7
asg236
g255
sg238
I01
saa(lp1372
g233
ag782
ag787
ag792
a(dp1373
g241
(lp1374
g173
asg234
(lp1375
I2
asg236
g259
sg238
g229
sa(dp1376
g241
(lp1377
g13
asg234
(lp1378
I4
asg236
Vfilter_color
p1379
sg238
(lp1380
I2
asa(dp1381
g241
(lp1382
g14
asg234
(lp1383
I5
asg236
Vfilter_material
p1384
sg238
(lp1385
I2
asa(dp1386
g241
(lp1387
g8
asg234
(lp1388
I6
asg236
Vfilter_shape
p1389
sg238
(lp1390
I2
asa(dp1391
g234
(lp1392
I7
asg236
g255
sg238
I01
saa(lp1393
g305
ag684
ag689
ag694
a(dp1394
g241
(lp1395
g173
asg234
(lp1396
I2
asg236
g259
sg238
g225
sa(dp1397
g241
(lp1398
g13
asg234
(lp1399
I4
asg236
Vfilter_color
p1400
sg238
(lp1401
I2
asa(dp1402
g241
(lp1403
g8
asg234
(lp1404
I5
asg236
Vfilter_shape
p1405
sg238
(lp1406
I2
asa(dp1407
g234
(lp1408
I6
asg236
g255
sg238
I01
saa(lp1409
g305
ag309
ag314
ag319
ag324
a(dp1410
g241
(lp1411
g167
asg234
(lp1412
I3
asg236
g259
sg238
g219
sa(dp1413
g241
(lp1414
g13
asg234
(lp1415
I5
asg236
Vfilter_color
p1416
sg238
(lp1417
I2
asa(dp1418
g241
(lp1419
g14
asg234
(lp1420
I6
asg236
Vfilter_material
p1421
sg238
(lp1422
I2
asa(dp1423
g241
(lp1424
g8
asg234
(lp1425
I7
asg236
Vfilter_shape
p1426
sg238
(lp1427
I2
asa(dp1428
g234
(lp1429
I8
asg236
g255
sg238
I01
saa(lp1430
g305
ag309
ag314
ag319
ag324
a(dp1431
g241
(lp1432
g167
asg234
(lp1433
I3
asg236
g259
sg238
g219
sa(dp1434
g241
(lp1435
g26
asg234
(lp1436
I5
asg236
Vfilter_color
p1437
sg238
(lp1438
I4
asa(dp1439
g241
(lp1440
g8
asg234
(lp1441
I6
asg236
Vfilter_shape
p1442
sg238
(lp1443
I4
asa(dp1444
g234
(lp1445
I7
asg236
g255
sg238
I01
saa(lp1446
g465
ag469
ag474
ag479
ag484
a(dp1447
g241
(lp1448
g167
asg234
(lp1449
I3
asg236
g259
sg238
g220
sa(dp1450
g241
(lp1451
g13
asg234
(lp1452
I5
asg236
Vfilter_color
p1453
sg238
(lp1454
I2
asa(dp1455
g241
(lp1456
g14
asg234
(lp1457
I6
asg236
Vfilter_material
p1458
sg238
(lp1459
I2
asa(dp1460
g241
(lp1461
g8
asg234
(lp1462
I7
asg236
Vfilter_shape
p1463
sg238
(lp1464
I2
asa(dp1465
g234
(lp1466
I8
asg236
g255
sg238
I01
saa(lp1467
g347
a(dp1468
g241
(lp1469
g22
asg234
(lp1470
I0
asg236
Vfilter_color
p1471
sg238
(lp1472
I3
asa(dp1473
g241
(lp1474
g8
asg234
(lp1475
I1
asg236
Vfilter_shape
p1476
sg238
(lp1477
I3
asa(dp1478
g234
(lp1479
I2
asg236
g255
sg238
I01
sa(dp1480
g241
(lp1481
g175
asg234
(lp1482
I2
asg236
g259
sg238
g216
sa(dp1483
g241
(lp1484
g7
asg234
(lp1485
I4
asg236
Vfilter_color
p1486
sg238
(lp1487
I1
asa(dp1488
g241
(lp1489
g8
asg234
(lp1490
I5
asg236
Vfilter_shape
p1491
sg238
(lp1492
I1
asa(dp1493
g234
(lp1494
I6
asg236
g255
sg238
I01
saa(lp1495
g233
ag593
ag598
ag603
ag608
a(dp1496
g241
(lp1497
g175
asg234
(lp1498
I3
asg236
g259
sg238
g217
sa(dp1499
g241
(lp1500
g18
asg234
(lp1501
I5
asg236
Vfilter_color
p1502
sg238
(lp1503
I0
asa(dp1504
g241
(lp1505
g8
asg234
(lp1506
I6
asg236
Vfilter_shape
p1507
sg238
(lp1508
I0
asa(dp1509
g234
(lp1510
I7
asg236
g255
sg238
I01
saa(lp1511
g233
ag782
ag787
ag792
a(dp1512
g241
(lp1513
g175
asg234
(lp1514
I2
asg236
g259
sg238
g217
sa(dp1515
g241
(lp1516
g18
asg234
(lp1517
I4
asg236
Vfilter_color
p1518
sg238
(lp1519
I0
asa(dp1520
g241
(lp1521
g8
asg234
(lp1522
I5
asg236
Vfilter_shape
p1523
sg238
(lp1524
I0
asa(dp1525
g234
(lp1526
I6
asg236
g255
sg238
I01
saa(lp1527
g273
ag810
ag816
ag821
ag826
a(dp1528
g241
(lp1529
g175
asg234
(lp1530
I3
asg236
g259
sg238
g215
sa(dp1531
g241
(lp1532
g18
asg234
(lp1533
I5
asg236
Vfilter_color
p1534
sg238
(lp1535
I0
asa(dp1536
g241
(lp1537
g14
asg234
(lp1538
I6
asg236
Vfilter_material
p1539
sg238
(lp1540
I0
asa(dp1541
g241
(lp1542
g8
asg234
(lp1543
I7
asg236
Vfilter_shape
p1544
sg238
(lp1545
I0
asa(dp1546
g234
(lp1547
I8
asg236
g255
sg238
I01
saa(lp1548
g465
ag507
ag512
ag517
a(dp1549
g241
(lp1550
g171
asg234
(lp1551
I2
asg236
g259
sg238
g208
sa(dp1552
g241
(lp1553
g18
asg234
(lp1554
I4
asg236
Vfilter_color
p1555
sg238
(lp1556
I0
asa(dp1557
g241
(lp1558
g8
asg234
(lp1559
I5
asg236
Vfilter_shape
p1560
sg238
(lp1561
I0
asa(dp1562
g234
(lp1563
I6
asg236
g255
sg238
I01
saa(lp1564
g273
ag277
ag282
ag287
a(dp1565
g241
(lp1566
g175
asg234
(lp1567
I2
asg236
g259
sg238
g215
sa(dp1568
g241
(lp1569
g7
asg234
(lp1570
I4
asg236
Vfilter_color
p1571
sg238
(lp1572
I1
asa(dp1573
g241
(lp1574
g8
asg234
(lp1575
I5
asg236
Vfilter_shape
p1576
sg238
(lp1577
I1
asa(dp1578
g234
(lp1579
I6
asg236
g255
sg238
I01
saa(lp1580
g233
ag844
ag849
ag854
a(dp1581
g241
(lp1582
g175
asg234
(lp1583
I2
asg236
g259
sg238
g217
sa(dp1584
g241
(lp1585
g18
asg234
(lp1586
I4
asg236
Vfilter_color
p1587
sg238
(lp1588
I0
asa(dp1589
g241
(lp1590
g14
asg234
(lp1591
I5
asg236
Vfilter_material
p1592
sg238
(lp1593
I0
asa(dp1594
g241
(lp1595
g8
asg234
(lp1596
I6
asg236
Vfilter_shape
p1597
sg238
(lp1598
I0
asa(dp1599
g234
(lp1600
I7
asg236
g255
sg238
I01
saa(lp1601
g233
ag431
ag436
ag442
ag447
a(dp1602
g241
(lp1603
g175
asg234
(lp1604
I3
asg236
g259
sg238
g217
sa(dp1605
g241
(lp1606
g18
asg234
(lp1607
I5
asg236
Vfilter_color
p1608
sg238
(lp1609
I0
asa(dp1610
g241
(lp1611
g8
asg234
(lp1612
I6
asg236
Vfilter_shape
p1613
sg238
(lp1614
I0
asa(dp1615
g234
(lp1616
I7
asg236
g255
sg238
I01
saa(lp1617
g347
ag351
ag356
ag361
ag366
a(dp1618
g241
(lp1619
g171
asg234
(lp1620
I3
asg236
g259
sg238
g210
sa(dp1621
g241
(lp1622
g13
asg234
(lp1623
I5
asg236
Vfilter_color
p1624
sg238
(lp1625
I2
asa(dp1626
g241
(lp1627
g8
asg234
(lp1628
I6
asg236
Vfilter_shape
p1629
sg238
(lp1630
I2
asa(dp1631
g234
(lp1632
I7
asg236
g255
sg238
I01
saa(lp1633
g233
ag431
ag436
ag442
ag447
a(dp1634
g241
(lp1635
g173
asg234
(lp1636
I3
asg236
g259
sg238
g229
sa(dp1637
g241
(lp1638
g13
asg234
(lp1639
I5
asg236
Vfilter_color
p1640
sg238
(lp1641
I2
asa(dp1642
g241
(lp1643
g14
asg234
(lp1644
I6
asg236
Vfilter_material
p1645
sg238
(lp1646
I2
asa(dp1647
g241
(lp1648
g8
asg234
(lp1649
I7
asg236
Vfilter_shape
p1650
sg238
(lp1651
I2
asa(dp1652
g234
(lp1653
I8
asg236
g255
sg238
I01
saa(lp1654
g347
ag1468
ag1473
ag1478
a(dp1655
g241
(lp1656
g175
asg234
(lp1657
I2
asg236
g259
sg238
g216
sa(dp1658
g241
(lp1659
g7
asg234
(lp1660
I4
asg236
Vfilter_color
p1661
sg238
(lp1662
I1
asa(dp1663
g241
(lp1664
g14
asg234
(lp1665
I5
asg236
Vfilter_material
p1666
sg238
(lp1667
I1
asa(dp1668
g241
(lp1669
g8
asg234
(lp1670
I6
asg236
Vfilter_shape
p1671
sg238
(lp1672
I1
asa(dp1673
g234
(lp1674
I7
asg236
g255
sg238
I01
saa(lp1675
g273
ag712
ag717
ag722
ag727
a(dp1676
g241
(lp1677
g173
asg234
(lp1678
I3
asg236
g259
sg238
g227
sa(dp1679
g241
(lp1680
g7
asg234
(lp1681
I5
asg236
Vfilter_color
p1682
sg238
(lp1683
I1
asa(dp1684
g241
(lp1685
g8
asg234
(lp1686
I6
asg236
Vfilter_shape
p1687
sg238
(lp1688
I1
asa(dp1689
g234
(lp1690
I7
asg236
g255
sg238
I01
saa(lp1691
g305
ag684
ag689
ag694
a(dp1692
g241
(lp1693
g173
asg234
(lp1694
I2
asg236
g259
sg238
g225
sa(dp1695
g241
(lp1696
g7
asg234
(lp1697
I4
asg236
Vfilter_color
p1698
sg238
(lp1699
I1
asa(dp1700
g241
(lp1701
g14
asg234
(lp1702
I5
asg236
Vfilter_material
p1703
sg238
(lp1704
I1
asa(dp1705
g241
(lp1706
g8
asg234
(lp1707
I6
asg236
Vfilter_shape
p1708
sg238
(lp1709
I1
asa(dp1710
g234
(lp1711
I7
asg236
g255
sg238
I01
saa(lp1712
g273
ag810
ag816
ag821
ag826
a(dp1713
g241
(lp1714
g171
asg234
(lp1715
I3
asg236
g259
sg238
g209
sa(dp1716
g241
(lp1717
g18
asg234
(lp1718
I5
asg236
Vfilter_color
p1719
sg238
(lp1720
I0
asa(dp1721
g241
(lp1722
g14
asg234
(lp1723
I6
asg236
Vfilter_material
p1724
sg238
(lp1725
I0
asa(dp1726
g241
(lp1727
g8
asg234
(lp1728
I7
asg236
Vfilter_shape
p1729
sg238
(lp1730
I0
asa(dp1731
g234
(lp1732
I8
asg236
g255
sg238
I01
saa(lp1733
g465
ag469
ag474
ag479
ag484
a(dp1734
g241
(lp1735
g171
asg234
(lp1736
I3
asg236
g259
sg238
g208
sa(dp1737
g241
(lp1738
g13
asg234
(lp1739
I5
asg236
Vfilter_color
p1740
sg238
(lp1741
I2
asa(dp1742
g241
(lp1743
g14
asg234
(lp1744
I6
asg236
Vfilter_material
p1745
sg238
(lp1746
I2
asa(dp1747
g241
(lp1748
g8
asg234
(lp1749
I7
asg236
Vfilter_shape
p1750
sg238
(lp1751
I2
asa(dp1752
g234
(lp1753
I8
asg236
g255
sg238
I01
saa(lp1754
g465
ag507
ag512
ag517
a(dp1755
g241
(lp1756
g171
asg234
(lp1757
I2
asg236
g259
sg238
g208
sa(dp1758
g241
(lp1759
g18
asg234
(lp1760
I4
asg236
Vfilter_color
p1761
sg238
(lp1762
I0
asa(dp1763
g241
(lp1764
g14
asg234
(lp1765
I5
asg236
Vfilter_material
p1766
sg238
(lp1767
I0
asa(dp1768
g241
(lp1769
g8
asg234
(lp1770
I6
asg236
Vfilter_shape
p1771
sg238
(lp1772
I0
asa(dp1773
g234
(lp1774
I7
asg236
g255
sg238
I01
saa(lp1775
g273
ag277
ag282
ag287
a(dp1776
g241
(lp1777
g173
asg234
(lp1778
I2
asg236
g259
sg238
g227
sa(dp1779
g241
(lp1780
g7
asg234
(lp1781
I4
asg236
Vfilter_color
p1782
sg238
(lp1783
I1
asa(dp1784
g241
(lp1785
g8
asg234
(lp1786
I5
asg236
Vfilter_shape
p1787
sg238
(lp1788
I1
asa(dp1789
g234
(lp1790
I6
asg236
g255
sg238
I01
saa(lp1791
g233
ag593
ag598
ag603
ag608
a(dp1792
g241
(lp1793
g173
asg234
(lp1794
I3
asg236
g259
sg238
g229
sa(dp1795
g241
(lp1796
g13
asg234
(lp1797
I5
asg236
Vfilter_color
p1798
sg238
(lp1799
I2
asa(dp1800
g241
(lp1801
g14
asg234
(lp1802
I6
asg236
Vfilter_material
p1803
sg238
(lp1804
I2
asa(dp1805
g241
(lp1806
g8
asg234
(lp1807
I7
asg236
Vfilter_shape
p1808
sg238
(lp1809
I2
asa(dp1810
g234
(lp1811
I8
asg236
g255
sg238
I01
saa(lp1812
g305
ag684
ag689
ag694
a(dp1813
g241
(lp1814
g167
asg234
(lp1815
I2
asg236
g259
sg238
g219
sa(dp1816
g241
(lp1817
g26
asg234
(lp1818
I4
asg236
Vfilter_color
p1819
sg238
(lp1820
I4
asa(dp1821
g241
(lp1822
g8
asg234
(lp1823
I5
asg236
Vfilter_shape
p1824
sg238
(lp1825
I4
asa(dp1826
g234
(lp1827
I6
asg236
g255
sg238
I01
saa(lp1828
g273
ag810
ag816
ag821
ag826
a(dp1829
g241
(lp1830
g173
asg234
(lp1831
I3
asg236
g259
sg238
g227
sa(dp1832
g241
(lp1833
g22
asg234
(lp1834
I5
asg236
Vfilter_color
p1835
sg238
(lp1836
I3
asa(dp1837
g241
(lp1838
g14
asg234
(lp1839
I6
asg236
Vfilter_material
p1840
sg238
(lp1841
I3
asa(dp1842
g241
(lp1843
g8
asg234
(lp1844
I7
asg236
Vfilter_shape
p1845
sg238
(lp1846
I3
asa(dp1847
g234
(lp1848
I8
asg236
g255
sg238
I01
saa(lp1849
g273
ag712
ag717
ag722
ag727
a(dp1850
g241
(lp1851
g171
asg234
(lp1852
I3
asg236
g259
sg238
g209
sa(dp1853
g241
(lp1854
g26
asg234
(lp1855
I5
asg236
Vfilter_color
p1856
sg238
(lp1857
I4
asa(dp1858
g241
(lp1859
g14
asg234
(lp1860
I6
asg236
Vfilter_material
p1861
sg238
(lp1862
I4
asa(dp1863
g241
(lp1864
g8
asg234
(lp1865
I7
asg236
Vfilter_shape
p1866
sg238
(lp1867
I4
asa(dp1868
g234
(lp1869
I8
asg236
g255
sg238
I01
saa(lp1870
g273
ag810
ag816
ag821
ag826
a(dp1871
g241
(lp1872
g173
asg234
(lp1873
I3
asg236
g259
sg238
g227
sa(dp1874
g241
(lp1875
g7
asg234
(lp1876
I5
asg236
Vfilter_color
p1877
sg238
(lp1878
I1
asa(dp1879
g241
(lp1880
g14
asg234
(lp1881
I6
asg236
Vfilter_material
p1882
sg238
(lp1883
I1
asa(dp1884
g241
(lp1885
g8
asg234
(lp1886
I7
asg236
Vfilter_shape
p1887
sg238
(lp1888
I1
asa(dp1889
g234
(lp1890
I8
asg236
g255
sg238
I01
saa(lp1891
g233
ag431
ag436
ag442
ag447
a(dp1892
g241
(lp1893
g175
asg234
(lp1894
I3
asg236
g259
sg238
g217
sa(dp1895
g241
(lp1896
g18
asg234
(lp1897
I5
asg236
Vfilter_color
p1898
sg238
(lp1899
I0
asa(dp1900
g241
(lp1901
g14
asg234
(lp1902
I6
asg236
Vfilter_material
p1903
sg238
(lp1904
I0
asa(dp1905
g241
(lp1906
g8
asg234
(lp1907
I7
asg236
Vfilter_shape
p1908
sg238
(lp1909
I0
asa(dp1910
g234
(lp1911
I8
asg236
g255
sg238
I01
saa(lp1912
g273
ag277
ag282
ag287
a(dp1913
g241
(lp1914
g175
asg234
(lp1915
I2
asg236
g259
sg238
g215
sa(dp1916
g241
(lp1917
g18
asg234
(lp1918
I4
asg236
Vfilter_color
p1919
sg238
(lp1920
I0
asa(dp1921
g241
(lp1922
g8
asg234
(lp1923
I5
asg236
Vfilter_shape
p1924
sg238
(lp1925
I0
asa(dp1926
g234
(lp1927
I6
asg236
g255
sg238
I01
saa(lp1928
g233
ag782
ag787
ag792
a(dp1929
g241
(lp1930
g175
asg234
(lp1931
I2
asg236
g259
sg238
g217
sa(dp1932
g241
(lp1933
g18
asg234
(lp1934
I4
asg236
Vfilter_color
p1935
sg238
(lp1936
I0
asa(dp1937
g241
(lp1938
g14
asg234
(lp1939
I5
asg236
Vfilter_material
p1940
sg238
(lp1941
I0
asa(dp1942
g241
(lp1943
g8
asg234
(lp1944
I6
asg236
Vfilter_shape
p1945
sg238
(lp1946
I0
asa(dp1947
g234
(lp1948
I7
asg236
g255
sg238
I01
saa(lp1949
g273
ag810
ag816
ag821
ag826
a(dp1950
g241
(lp1951
g173
asg234
(lp1952
I3
asg236
g259
sg238
g227
sa(dp1953
g241
(lp1954
g22
asg234
(lp1955
I5
asg236
Vfilter_color
p1956
sg238
(lp1957
I3
asa(dp1958
g241
(lp1959
g8
asg234
(lp1960
I6
asg236
Vfilter_shape
p1961
sg238
(lp1962
I3
asa(dp1963
g234
(lp1964
I7
asg236
g255
sg238
I01
saa(lp1965
g233
ag240
ag247
ag253
a(dp1966
g241
(lp1967
g173
asg234
(lp1968
I2
asg236
g259
sg238
g229
sa(dp1969
g241
(lp1970
g13
asg234
(lp1971
I4
asg236
Vfilter_color
p1972
sg238
(lp1973
I2
asa(dp1974
g241
(lp1975
g8
asg234
(lp1976
I5
asg236
Vfilter_shape
p1977
sg238
(lp1978
I2
asa(dp1979
g234
(lp1980
I6
asg236
g255
sg238
I01
saa(lp1981
g233
ag844
ag849
ag854
a(dp1982
g241
(lp1983
g175
asg234
(lp1984
I2
asg236
g259
sg238
g217
sa(dp1985
g241
(lp1986
g18
asg234
(lp1987
I4
asg236
Vfilter_color
p1988
sg238
(lp1989
I0
asa(dp1990
g241
(lp1991
g8
asg234
(lp1992
I5
asg236
Vfilter_shape
p1993
sg238
(lp1994
I0
asa(dp1995
g234
(lp1996
I6
asg236
g255
sg238
I01
saasS'question'
p1997
(lp1998
VThere is a cyan ball, are there any red spheres behind it?
p1999
aVThere is a green sphere, are there any purple balls to the left of it?
p2000
aVThere is a red rubber sphere; are there any blue matte spheres left of it?
p2001
aVThere is a purple rubber ball; are there any blue rubber spheres behind it?
p2002
aVThere is a green ball, are there any cyan rubber balls to the right of it?
p2003
aVThere is a red matte ball; are there any green rubber balls on the left side of it?
p2004
aVThere is a cyan rubber sphere, are there any green spheres to the left of it?
p2005
aVThere is a blue rubber ball; are there any red rubber spheres on the right side of it?
p2006
aVThere is a blue sphere; are there any purple matte balls in front of it?
p2007
aVThere is a red matte ball; are there any green balls on the left side of it?
p2008
aVThere is a green sphere, are there any red rubber spheres to the right of it?
p2009
aVThere is a blue sphere; are there any purple spheres in front of it?
p2010
aVThere is a cyan matte ball, are there any green spheres to the left of it?
p2011
aVThere is a blue ball; are there any green matte spheres right of it?
p2012
aVThere is a red matte ball; are there any cyan rubber spheres in front of it?
p2013
aVThere is a blue sphere; are there any green spheres in front of it?
p2014
aVThere is a red ball; are there any blue spheres left of it?
p2015
aVThere is a green matte ball, are there any purple balls left of it?
p2016
aVThere is a green rubber sphere, are there any blue rubber spheres behind it?
p2017
aVThere is a green rubber ball, are there any cyan spheres to the right of it?
p2018
aVThere is a cyan ball, are there any green balls left of it?
p2019
aVThere is a green matte ball, are there any blue balls on the left side of it?
p2020
aVThere is a cyan ball, are there any green rubber spheres on the left side of it?
p2021
aVThere is a green rubber sphere, are there any red rubber spheres behind it?
p2022
aVThere is a cyan sphere, are there any green rubber spheres to the left of it?
p2023
aVThere is a green rubber sphere, are there any blue matte spheres to the left of it?
p2024
aVThere is a red ball; are there any green rubber balls to the left of it?
p2025
aVThere is a blue matte sphere; are there any purple rubber balls in front of it?
p2026
aVThere is a cyan sphere, are there any green balls left of it?
p2027
aVThere is a green sphere, are there any blue matte spheres behind it?
p2028
aVThere is a green matte sphere, are there any cyan balls on the right side of it?
p2029
aVThere is a red ball; are there any cyan rubber balls in front of it?
p2030
aVThere is a green matte ball, are there any cyan rubber spheres to the right of it?
p2031
aVThere is a purple rubber ball; are there any blue spheres behind it?
p2032
aVThere is a red ball; are there any green balls in front of it?
p2033
aVThere is a red rubber sphere; are there any blue balls on the left side of it?
p2034
aVThere is a cyan rubber ball, are there any red matte spheres behind it?
p2035
aVThere is a green ball, are there any red rubber balls behind it?
p2036
aVThere is a green matte ball, are there any purple rubber balls on the left side of it?
p2037
aVThere is a green rubber sphere, are there any blue balls behind it?
p2038
aVThere is a green ball, are there any purple matte spheres left of it?
p2039
aVThere is a green matte sphere, are there any blue balls behind it?
p2040
aVThere is a purple rubber ball; are there any green rubber balls right of it?
p2041
aVThere is a green ball, are there any blue rubber spheres to the left of it?
p2042
aVThere is a green matte sphere, are there any blue rubber balls behind it?
p2043
aVThere is a green rubber ball, are there any red balls behind it?
p2044
aVThere is a green ball, are there any cyan spheres on the right side of it?
p2045
aVThere is a green matte ball, are there any red spheres behind it?
p2046
aVThere is a cyan sphere, are there any red rubber balls behind it?
p2047
aVThere is a cyan ball, are there any green rubber spheres to the left of it?
p2048
aVThere is a red sphere; are there any green balls left of it?
p2049
aVThere is a red rubber sphere; are there any green rubber spheres in front of it?
p2050
aVThere is a red rubber sphere; are there any cyan spheres in front of it?
p2051
aVThere is a blue rubber sphere; are there any green matte spheres in front of it?
p2052
aVThere is a purple sphere; are there any blue spheres behind it?
p2053
aVThere is a cyan rubber sphere, are there any red spheres behind it?
p2054
aVThere is a cyan sphere, are there any red balls behind it?
p2055
aVThere is a green matte ball, are there any red rubber balls behind it?
p2056
aVThere is a blue ball; are there any red spheres to the right of it?
p2057
aVThere is a green sphere, are there any blue spheres behind it?
p2058
aVThere is a cyan sphere, are there any red rubber spheres behind it?
p2059
aVThere is a cyan rubber ball, are there any red balls behind it?
p2060
aVThere is a purple matte ball; are there any green balls right of it?
p2061
aVThere is a cyan matte ball, are there any green rubber spheres to the left of it?
p2062
aVThere is a purple ball; are there any blue rubber spheres behind it?
p2063
aVThere is a green matte ball, are there any blue balls left of it?
p2064
aVThere is a red ball; are there any blue matte spheres on the left side of it?
p2065
aVThere is a green rubber ball, are there any red matte balls right of it?
p2066
aVThere is a blue matte sphere; are there any green rubber balls right of it?
p2067
aVThere is a blue ball; are there any red matte spheres on the right side of it?
p2068
aVThere is a green ball, are there any blue spheres on the left side of it?
p2069
aVThere is a cyan rubber sphere, are there any green matte spheres left of it?
p2070
aVThere is a red ball; are there any cyan spheres in front of it?
p2071
aVThere is a green rubber sphere, are there any purple rubber balls on the left side of it?
p2072
aVThere is a green rubber sphere, are there any cyan rubber balls to the right of it?
p2073
aVThere is a green rubber sphere, are there any blue matte balls on the left side of it?
p2074
aVThere is a cyan matte ball, are there any red rubber balls behind it?
p2075
aVThere is a green ball, are there any red balls behind it?
p2076
aVThere is a cyan sphere, are there any red rubber spheres behind it?
p2077
aVThere is a green matte sphere, are there any purple spheres on the left side of it?
p2078
aVThere is a cyan ball, are there any green balls left of it?
p2079
aVThere is a cyan sphere, are there any red balls behind it?
p2080
as.