(lp1
(dp2
S'answer'
p3
I00
sS'program'
p4
(lp5
(dp6
S'inputs'
p7
(lp8
sS'type'
p9
Vscene
p10
sa(dp11
g7
(lp12
I0
asS'side_inputs'
p13
(lp14
Vlarge
p15
asg9
Vfilter_size
p16
sa(dp17
g7
(lp18
I1
asg13
(lp19
Vrubber
p20
asg9
Vfilter_material
p21
sa(dp22
g7
(lp23
I2
asg13
(lp24
Vcylinder
p25
asg9
Vfilter_shape
p26
sa(dp27
g7
(lp28
I3
asg9
S'unique'
p29
sa(dp30
g7
(lp31
I3
asg13
(lp32
S'front'
p33
asg9
S'relate'
p34
sa(dp35
g7
(lp36
I5
asg13
(lp37
g15
asg9
Vfilter_size
p38
sa(dp39
g7
(lp40
I6
asg13
(lp41
g20
asg9
Vfilter_material
p42
sa(dp43
g7
(lp44
I7
asg9
S'exist'
p45
sasS'template_filename'
p46
S'general_template'
p47
sS'question'
p48
VThere is a large rubber cylinder; are there any big rubber objects in front of it?
p49
sS'question_index'
p50
I0
sS'question_family_index'
p51
I0
sa(dp52
g3
I01
sg4
(lp53
(dp54
g7
g8
sg9
g10
sa(dp55
g7
(lp56
I0
asg13
(lp57
g15
asg9
Vfilter_size
p58
sa(dp59
g7
(lp60
I1
asg13
(lp61
g20
asg9
Vfilter_material
p62
sa(dp63
g7
(lp64
I2
asg13
(lp65
Vsphere
p66
asg9
Vfilter_shape
p67
sa(dp68
g7
(lp69
I3
asg9
g29
sa(dp70
g7
(lp71
I3
asg13
(lp72
S'left'
p73
asg9
g34
sa(dp74
g7
(lp75
I5
asg13
(lp76
g15
asg9
Vfilter_size
p77
sa(dp78
g7
(lp79
I6
asg13
(lp80
g20
asg9
Vfilter_material
p81
sa(dp82
g7
(lp83
I7
asg13
(lp84
Vcube
p85
asg9
Vfilter_shape
p86
sa(dp87
g7
(lp88
I8
asg9
g45
sasg46
g47
sg48
VThere is a large matte ball; are there any large rubber cubes left of it?
p89
sg50
I0
sg51
I0
sa(dp90
g3
I00
sg4
(lp91
(dp92
g7
g8
sg9
g10
sa(dp93
g7
(lp94
I0
asg13
(lp95
g15
asg9
Vfilter_size
p96
sa(dp97
g7
(lp98
I1
asg13
(lp99
g20
asg9
Vfilter_material
p100
sa(dp101
g7
(lp102
I2
asg13
(lp103
g66
asg9
Vfilter_shape
p104
sa(dp105
g7
(lp106
I3
asg9
g29
sa(dp107
g7
(lp108
I3
asg13
(lp109
g73
asg9
g34
sa(dp110
g7
(lp111
I5
asg13
(lp112
g15
asg9
Vfilter_size
p113
sa(dp114
g7
(lp115
I6
asg13
(lp116
g20
asg9
Vfilter_material
p117
sa(dp118
g7
(lp119
I7
asg13
(lp120
g66
asg9
Vfilter_shape
p121
sa(dp122
g7
(lp123
I8
asg9
g45
sasg46
g47
sg48
VThere is a big matte sphere; are there any large matte balls left of it?
p124
sg50
I7
sg51
I0
sa(dp125
g3
I00
sg4
(lp126
g54
ag55
ag59
ag63
ag68
a(dp127
g7
(lp128
I3
asg13
(lp129
S'behind'
p130
asg9
g34
sa(dp131
g7
(lp132
I5
asg13
(lp133
g15
asg9
Vfilter_size
p134
sa(dp135
g7
(lp136
I6
asg13
(lp137
g20
asg9
Vfilter_material
p138
sa(dp139
g7
(lp140
I7
asg13
(lp141
g25
asg9
Vfilter_shape
p142
sa(dp143
g7
(lp144
I8
asg9
g45
sasg46
g47
sg48
VThere is a large matte ball; are there any large matte cylinders behind it?
p145
sg50
I4
sg51
I0
sa(dp146
g3
I01
sg4
(lp147
g92
ag93
ag97
ag101
ag105
a(dp148
g7
(lp149
I3
asg13
(lp150
S'right'
p151
asg9
g34
sa(dp152
g7
(lp153
I5
asg13
(lp154
g15
asg9
Vfilter_size
p155
sa(dp156
g7
(lp157
I6
asg13
(lp158
g20
asg9
Vfilter_material
p159
sa(dp160
g7
(lp161
I7
asg13
(lp162
g25
asg9
Vfilter_shape
p163
sa(dp164
g7
(lp165
I8
asg9
g45
sasg46
g47
sg48
VThere is a large rubber ball; are there any large matte cylinders right of it?
p166
sg50
I1
sg51
I0
sa(dp167
g3
I01
sg4
(lp168
(dp169
g7
g8
sg9
g10
sa(dp170
g7
(lp171
I0
asg13
(lp172
g15
asg9
Vfilter_size
p173
sa(dp174
g7
(lp175
I1
asg13
(lp176
g20
asg9
Vfilter_material
p177
sa(dp178
g7
(lp179
I2
asg13
(lp180
g85
asg9
Vfilter_shape
p181
sa(dp182
g7
(lp183
I3
asg9
g29
sa(dp184
g7
(lp185
I3
asg13
(lp186
g130
asg9
g34
sa(dp187
g7
(lp188
I5
asg13
(lp189
g15
asg9
Vfilter_size
p190
sa(dp191
g7
(lp192
I6
asg13
(lp193
g20
asg9
Vfilter_material
p194
sa(dp195
g7
(lp196
I7
asg13
(lp197
g25
asg9
Vfilter_shape
p198
sa(dp199
g7
(lp200
I8
asg9
g45
sasg46
g47
sg48
VThere is a large matte block; are there any big matte cylinders behind it?
p201
sg50
I6
sg51
I0
sa(dp202
g3
I01
sg4
(lp203
g92
ag93
ag97
ag101
ag105
a(dp204
g7
(lp205
I3
asg13
(lp206
g151
asg9
g34
sa(dp207
g7
(lp208
I5
asg13
(lp209
g15
asg9
Vfilter_size
p210
sa(dp211
g7
(lp212
I6
asg13
(lp213
g20
asg9
Vfilter_material
p214
sa(dp215
g7
(lp216
I7
asg9
g45
sasg46
g47
sg48
VThere is a large rubber sphere; are there any big rubber objects on the right side of it?
p217
sg50
I3
sg51
I0
sa(dp218
g3
I01
sg4
(lp219
g92
ag93
ag97
ag101
ag105
a(dp220
g7
(lp221
I3
asg13
(lp222
g33
asg9
g34
sa(dp223
g7
(lp224
I5
asg13
(lp225
g15
asg9
Vfilter_size
p226
sa(dp227
g7
(lp228
I6
asg13
(lp229
g20
asg9
Vfilter_material
p230
sa(dp231
g7
(lp232
I7
asg13
(lp233
g85
asg9
Vfilter_shape
p234
sa(dp235
g7
(lp236
I8
asg9
g45
sasg46
g47
sg48
VThere is a big matte ball; are there any large rubber cubes in front of it?
p237
sg50
I5
sg51
I0
sa(dp238
g3
I01
sg4
(lp239
g6
ag11
ag17
ag22
ag27
a(dp240
g7
(lp241
I3
asg13
(lp242
g151
asg9
g34
sa(dp243
g7
(lp244
I5
asg13
(lp245
g15
asg9
Vfilter_size
p246
sa(dp247
g7
(lp248
I6
asg13
(lp249
g20
asg9
Vfilter_material
p250
sa(dp251
g7
(lp252
I7
asg9
g45
sasg46
g47
sg48
VThere is a big rubber cylinder; are there any big matte objects right of it?
p253
sg50
I3
sg51
I0
sa(dp254
g3
I00
sg4
(lp255
(dp256
g7
g8
sg9
g10
sa(dp257
g7
(lp258
I0
asg13
(lp259
g15
asg9
Vfilter_size
p260
sa(dp261
g7
(lp262
I1
asg13
(lp263
g20
asg9
Vfilter_material
p264
sa(dp265
g7
(lp266
I2
asg13
(lp267
g25
asg9
Vfilter_shape
p268
sa(dp269
g7
(lp270
I3
asg9
g29
sa(dp271
g7
(lp272
I3
asg13
(lp273
g130
asg9
g34
sa(dp274
g7
(lp275
I5
asg13
(lp276
g15
asg9
Vfilter_size
p277
sa(dp278
g7
(lp279
I6
asg13
(lp280
g20
asg9
Vfilter_material
p281
sa(dp282
g7
(lp283
I7
asg13
(lp284
g25
asg9
Vfilter_shape
p285
sa(dp286
g7
(lp287
I8
asg9
g45
sasg46
g47
sg48
VThere is a large rubber cylinder; are there any big rubber cylinders behind it?
p288
sg50
I2
sg51
I0
sa(dp289
g3
I00
sg4
(lp290
g6
ag11
ag17
ag22
ag27
a(dp291
g7
(lp292
I3
asg13
(lp293
g73
asg9
g34
sa(dp294
g7
(lp295
I5
asg13
(lp296
g15
asg9
Vfilter_size
p297
sa(dp298
g7
(lp299
I6
asg13
(lp300
g20
asg9
Vfilter_material
p301
sa(dp302
g7
(lp303
I7
asg13
(lp304
g85
asg9
Vfilter_shape
p305
sa(dp306
g7
(lp307
I8
asg9
g45
sasg46
g47
sg48
VThere is a large matte cylinder; are there any large rubber blocks on the left side of it?
p308
sg50
I4
sg51
I0
sa(dp309
g3
I01
sg4
(lp310
(dp311
g7
g8
sg9
g10
sa(dp312
g7
(lp313
I0
asg13
(lp314
g15
asg9
Vfilter_size
p315
sa(dp316
g7
(lp317
I1
asg13
(lp318
g20
asg9
Vfilter_material
p319
sa(dp320
g7
(lp321
I2
asg13
(lp322
g85
asg9
Vfilter_shape
p323
sa(dp324
g7
(lp325
I3
asg9
g29
sa(dp326
g7
(lp327
I3
asg13
(lp328
g73
asg9
g34
sa(dp329
g7
(lp330
I5
asg13
(lp331
g15
asg9
Vfilter_size
p332
sa(dp333
g7
(lp334
I6
asg13
(lp335
g20
asg9
Vfilter_material
p336
sa(dp337
g7
(lp338
I7
asg13
(lp339
g66
asg9
Vfilter_shape
p340
sa(dp341
g7
(lp342
I8
asg9
g45
sasg46
g47
sg48
VThere is a big rubber block; are there any large matte balls to the left of it?
p343
sg50
I3
sg51
I0
sa(dp344
g3
I00
sg4
(lp345
g92
ag93
ag97
ag101
ag105
a(dp346
g7
(lp347
I3
asg13
(lp348
g33
asg9
g34
sa(dp349
g7
(lp350
I5
asg13
(lp351
g15
asg9
Vfilter_size
p352
sa(dp353
g7
(lp354
I6
asg13
(lp355
g20
asg9
Vfilter_material
p356
sa(dp357
g7
(lp358
I7
asg13
(lp359
g66
asg9
Vfilter_shape
p360
sa(dp361
g7
(lp362
I8
asg9
g45
sasg46
g47
sg48
VThere is a large rubber ball; are there any large rubber spheres in front of it?
p363
sg50
I0
sg51
I0
sa(dp364
g3
I00
sg4
(lp365
g6
ag11
ag17
ag22
ag27
a(dp366
g7
(lp367
I3
asg13
(lp368
g130
asg9
g34
sa(dp369
g7
(lp370
I5
asg13
(lp371
g15
asg9
Vfilter_size
p372
sa(dp373
g7
(lp374
I6
asg13
(lp375
g20
asg9
Vfilter_material
p376
sa(dp377
g7
(lp378
I7
asg9
g45
sasg46
g47
sg48
VThere is a large matte cylinder; are there any big matte things behind it?
p379
sg50
I2
sg51
I0
sa(dp380
g3
I01
sg4
(lp381
(dp382
g7
g8
sg9
g10
sa(dp383
g7
(lp384
I0
asg13
(lp385
g15
asg9
Vfilter_size
p386
sa(dp387
g7
(lp388
I1
asg13
(lp389
g20
asg9
Vfilter_material
p390
sa(dp391
g7
(lp392
I2
asg13
(lp393
g66
asg9
Vfilter_shape
p394
sa(dp395
g7
(lp396
I3
asg9
g29
sa(dp397
g7
(lp398
I3
asg13
(lp399
g151
asg9
g34
sa(dp400
g7
(lp401
I5
asg13
(lp402
g15
asg9
Vfilter_size
p403
sa(dp404
g7
(lp405
I6
asg13
(lp406
g20
asg9
Vfilter_material
p407
sa(dp408
g7
(lp409
I7
asg13
(lp410
g85
asg9
Vfilter_shape
p411
sa(dp412
g7
(lp413
I8
asg9
g45
sasg46
g47
sg48
VThere is a large rubber sphere; are there any large matte cubes right of it?
p414
sg50
I4
sg51
I0
sa(dp415
g3
I00
sg4
(lp416
(dp417
g7
g8
sg9
g10
sa(dp418
g7
(lp419
I0
asg13
(lp420
g15
asg9
Vfilter_size
p421
sa(dp422
g7
(lp423
I1
asg13
(lp424
g20
asg9
Vfilter_material
p425
sa(dp426
g7
(lp427
I2
asg13
(lp428
g25
asg9
Vfilter_shape
p429
sa(dp430
g7
(lp431
I3
asg9
g29
sa(dp432
g7
(lp433
I3
asg13
(lp434
g130
asg9
g34
sa(dp435
g7
(lp436
I5
asg13
(lp437
g15
asg9
Vfilter_size
p438
sa(dp439
g7
(lp440
I6
asg13
(lp441
g20
asg9
Vfilter_material
p442
sa(dp443
g7
(lp444
I7
asg13
(lp445
g85
asg9
Vfilter_shape
p446
sa(dp447
g7
(lp448
I8
asg9
g45
sasg46
g47
sg48
VThere is a big rubber cylinder; are there any big rubber blocks behind it?
p449
sg50
I14
sg51
I0
sa(dp450
g3
I01
sg4
(lp451
g169
ag170
ag174
ag178
ag182
a(dp452
g7
(lp453
I3
asg13
(lp454
g130
asg9
g34
sa(dp455
g7
(lp456
I5
asg13
(lp457
g15
asg9
Vfilter_size
p458
sa(dp459
g7
(lp460
I6
asg13
(lp461
g20
asg9
Vfilter_material
p462
sa(dp463
g7
(lp464
I7
asg9
g45
sasg46
g47
sg48
VThere is a large rubber cube; are there any large rubber objects behind it?
p465
sg50
I1
sg51
I0
sa(dp466
g3
I01
sg4
(lp467
g92
ag93
ag97
ag101
ag105
a(dp468
g7
(lp469
I3
asg13
(lp470
g33
asg9
g34
sa(dp471
g7
(lp472
I5
asg13
(lp473
g15
asg9
Vfilter_size
p474
sa(dp475
g7
(lp476
I6
asg13
(lp477
g20
asg9
Vfilter_material
p478
sa(dp479
g7
(lp480
I7
asg9
g45
sasg46
g47
sg48
VThere is a big rubber sphere; are there any large matte objects in front of it?
p481
sg50
I6
sg51
I0
sa(dp482
g3
I00
sg4
(lp483
g169
ag170
ag174
ag178
ag182
a(dp484
g7
(lp485
I3
asg13
(lp486
g33
asg9
g34
sa(dp487
g7
(lp488
I5
asg13
(lp489
g15
asg9
Vfilter_size
p490
sa(dp491
g7
(lp492
I6
asg13
(lp493
g20
asg9
Vfilter_material
p494
sa(dp495
g7
(lp496
I7
asg13
(lp497
g25
asg9
Vfilter_shape
p498
sa(dp499
g7
(lp500
I8
asg9
g45
sasg46
g47
sg48
VThere is a big rubber cube; are there any large matte cylinders in front of it?
p501
sg50
I2
sg51
I0
sa(dp502
g3
I00
sg4
(lp503
g92
ag93
ag97
ag101
ag105
a(dp504
g7
(lp505
I3
asg13
(lp506
g73
asg9
g34
sa(dp507
g7
(lp508
I5
asg13
(lp509
g15
asg9
Vfilter_size
p510
sa(dp511
g7
(lp512
I6
asg13
(lp513
g20
asg9
Vfilter_material
p514
sa(dp515
g7
(lp516
I7
asg13
(lp517
g25
asg9
Vfilter_shape
p518
sa(dp519
g7
(lp520
I8
asg9
g45
sasg46
g47
sg48
VThere is a big matte ball; are there any big rubber cylinders left of it?
p521
sg50
I4
sg51
I0
sa(dp522
g3
I00
sg4
(lp523
(dp524
g7
g8
sg9
g10
sa(dp525
g7
(lp526
I0
asg13
(lp527
g15
asg9
Vfilter_size
p528
sa(dp529
g7
(lp530
I1
asg13
(lp531
g20
asg9
Vfilter_material
p532
sa(dp533
g7
(lp534
I2
asg13
(lp535
g85
asg9
Vfilter_shape
p536
sa(dp537
g7
(lp538
I3
asg9
g29
sa(dp539
g7
(lp540
I3
asg13
(lp541
g73
asg9
g34
sa(dp542
g7
(lp543
I5
asg13
(lp544
g15
asg9
Vfilter_size
p545
sa(dp546
g7
(lp547
I6
asg13
(lp548
g20
asg9
Vfilter_material
p549
sa(dp550
g7
(lp551
I7
asg13
(lp552
g25
asg9
Vfilter_shape
p553
sa(dp554
g7
(lp555
I8
asg9
g45
sasg46
g47
sg48
VThere is a large rubber block; are there any large rubber cylinders left of it?
p556
sg50
I7
sg51
I0
sa(dp557
g3
I00
sg4
(lp558
(dp559
g7
g8
sg9
g10
sa(dp560
g7
(lp561
I0
asg13
(lp562
g15
asg9
Vfilter_size
p563
sa(dp564
g7
(lp565
I1
asg13
(lp566
g20
asg9
Vfilter_material
p567
sa(dp568
g7
(lp569
I2
asg13
(lp570
g85
asg9
Vfilter_shape
p571
sa(dp572
g7
(lp573
I3
asg9
g29
sa(dp574
g7
(lp575
I3
asg13
(lp576
g73
asg9
g34
sa(dp577
g7
(lp578
I5
asg13
(lp579
g15
asg9
Vfilter_size
p580
sa(dp581
g7
(lp582
I6
asg13
(lp583
g20
asg9
Vfilter_material
p584
sa(dp585
g7
(lp586
I7
asg13
(lp587
g85
asg9
Vfilter_shape
p588
sa(dp589
g7
(lp590
I8
asg9
g45
sasg46
g47
sg48
VThere is a big rubber block; are there any large matte blocks left of it?
p591
sg50
I10
sg51
I0
sa(dp592
g3
I01
sg4
(lp593
g6
ag11
ag17
ag22
ag27
a(dp594
g7
(lp595
I3
asg13
(lp596
g151
asg9
g34
sa(dp597
g7
(lp598
I5
asg13
(lp599
g15
asg9
Vfilter_size
p600
sa(dp601
g7
(lp602
I6
asg13
(lp603
g20
asg9
Vfilter_material
p604
sa(dp605
g7
(lp606
I7
asg13
(lp607
g66
asg9
Vfilter_shape
p608
sa(dp609
g7
(lp610
I8
asg9
g45
sasg46
g47
sg48
VThere is a large matte cylinder; are there any large matte spheres right of it?
p611
sg50
I1
sg51
I0
sa(dp612
g3
I01
sg4
(lp613
g169
ag170
ag174
ag178
ag182
a(dp614
g7
(lp615
I3
asg13
(lp616
g151
asg9
g34
sa(dp617
g7
(lp618
I5
asg13
(lp619
g15
asg9
Vfilter_size
p620
sa(dp621
g7
(lp622
I6
asg13
(lp623
g20
asg9
Vfilter_material
p624
sa(dp625
g7
(lp626
I7
asg9
g45
sasg46
g47
sg48
VThere is a big matte cube; are there any big rubber objects on the right side of it?
p627
sg50
I4
sg51
I0
sa(dp628
g3
I00
sg4
(lp629
g54
ag55
ag59
ag63
ag68
a(dp630
g7
(lp631
I3
asg13
(lp632
g130
asg9
g34
sa(dp633
g7
(lp634
I5
asg13
(lp635
g15
asg9
Vfilter_size
p636
sa(dp637
g7
(lp638
I6
asg13
(lp639
g20
asg9
Vfilter_material
p640
sa(dp641
g7
(lp642
I7
asg13
(lp643
g85
asg9
Vfilter_shape
p644
sa(dp645
g7
(lp646
I8
asg9
g45
sasg46
g47
sg48
VThere is a big matte sphere; are there any big matte blocks behind it?
p647
sg50
I9
sg51
I0
sa(dp648
g3
I00
sg4
(lp649
(dp650
g7
g8
sg9
g10
sa(dp651
g7
(lp652
I0
asg13
(lp653
g15
asg9
Vfilter_size
p654
sa(dp655
g7
(lp656
I1
asg13
(lp657
g20
asg9
Vfilter_material
p658
sa(dp659
g7
(lp660
I2
asg13
(lp661
g25
asg9
Vfilter_shape
p662
sa(dp663
g7
(lp664
I3
asg9
g29
sa(dp665
g7
(lp666
I3
asg13
(lp667
g151
asg9
g34
sa(dp668
g7
(lp669
I5
asg13
(lp670
g15
asg9
Vfilter_size
p671
sa(dp672
g7
(lp673
I6
asg13
(lp674
g20
asg9
Vfilter_material
p675
sa(dp676
g7
(lp677
I7
asg13
(lp678
g25
asg9
Vfilter_shape
p679
sa(dp680
g7
(lp681
I8
asg9
g45
sasg46
g47
sg48
VThere is a large matte cylinder; are there any big rubber cylinders right of it?
p682
sg50
I1
sg51
I0
sa(dp683
g3
I00
sg4
(lp684
g559
a(dp685
g7
(lp686
I0
asg13
(lp687
g15
asg9
Vfilter_size
p688
sa(dp689
g7
(lp690
I1
asg13
(lp691
g20
asg9
Vfilter_material
p692
sa(dp693
g7
(lp694
I2
asg13
(lp695
g25
asg9
Vfilter_shape
p696
sa(dp697
g7
(lp698
I3
asg9
g29
sa(dp699
g7
(lp700
I3
asg13
(lp701
g151
asg9
g34
sa(dp702
g7
(lp703
I5
asg13
(lp704
g15
asg9
Vfilter_size
p705
sa(dp706
g7
(lp707
I6
asg13
(lp708
g20
asg9
Vfilter_material
p709
sa(dp710
g7
(lp711
I7
asg13
(lp712
g85
asg9
Vfilter_shape
p713
sa(dp714
g7
(lp715
I8
asg9
g45
sasg46
g47
sg48
VThere is a large matte cylinder; are there any big matte blocks to the right of it?
p716
sg50
I5
sg51
I0
sa(dp717
g3
I00
sg4
(lp718
g54
ag55
ag59
ag63
ag68
a(dp719
g7
(lp720
I3
asg13
(lp721
g130
asg9
g34
sa(dp722
g7
(lp723
I5
asg13
(lp724
g15
asg9
Vfilter_size
p725
sa(dp726
g7
(lp727
I6
asg13
(lp728
g20
asg9
Vfilter_material
p729
sa(dp730
g7
(lp731
I7
asg13
(lp732
g66
asg9
Vfilter_shape
p733
sa(dp734
g7
(lp735
I8
asg9
g45
sasg46
g47
sg48
VThere is a big rubber ball; are there any big rubber balls behind it?
p736
sg50
I6
sg51
I0
sa(dp737
g3
I01
sg4
(lp738
g559
ag685
ag689
ag693
ag697
a(dp739
g7
(lp740
I3
asg13
(lp741
g73
asg9
g34
sa(dp742
g7
(lp743
I5
asg13
(lp744
g15
asg9
Vfilter_size
p745
sa(dp746
g7
(lp747
I6
asg13
(lp748
g20
asg9
Vfilter_material
p749
sa(dp750
g7
(lp751
I7
asg13
(lp752
g66
asg9
Vfilter_shape
p753
sa(dp754
g7
(lp755
I8
asg9
g45
sasg46
g47
sg48
VThere is a large matte cylinder; are there any large rubber balls to the left of it?
p756
sg50
I6
sg51
I0
sa(dp757
g3
I01
sg4
(lp758
g559
ag685
ag689
ag693
ag697
a(dp759
g7
(lp760
I3
asg13
(lp761
g73
asg9
g34
sa(dp762
g7
(lp763
I5
asg13
(lp764
g15
asg9
Vfilter_size
p765
sa(dp766
g7
(lp767
I6
asg13
(lp768
g20
asg9
Vfilter_material
p769
sa(dp770
g7
(lp771
I7
asg9
g45
sasg46
g47
sg48
VThere is a large rubber cylinder; are there any large matte things on the left side of it?
p772
sg50
I3
sg51
I0
sa(dp773
g3
I00
sg4
(lp774
g169
ag170
ag174
ag178
ag182
a(dp775
g7
(lp776
I3
asg13
(lp777
g73
asg9
g34
sa(dp778
g7
(lp779
I5
asg13
(lp780
g15
asg9
Vfilter_size
p781
sa(dp782
g7
(lp783
I6
asg13
(lp784
g20
asg9
Vfilter_material
p785
sa(dp786
g7
(lp787
I7
asg9
g45
sasg46
g47
sg48
VThere is a large rubber block; are there any big rubber objects left of it?
p788
sg50
I0
sg51
I0
sa(dp789
g3
I00
sg4
(lp790
g92
ag93
ag97
ag101
ag105
a(dp791
g7
(lp792
I3
asg13
(lp793
g130
asg9
g34
sa(dp794
g7
(lp795
I5
asg13
(lp796
g15
asg9
Vfilter_size
p797
sa(dp798
g7
(lp799
I6
asg13
(lp800
g20
asg9
Vfilter_material
p801
sa(dp802
g7
(lp803
I7
asg9
g45
sasg46
g47
sg48
VThere is a large matte sphere; are there any large matte objects behind it?
p804
sg50
I8
sg51
I0
sa(dp805
g3
I00
sg4
(lp806
g169
ag170
ag174
ag178
ag182
a(dp807
g7
(lp808
I3
asg13
(lp809
g130
asg9
g34
sa(dp810
g7
(lp811
I5
asg13
(lp812
g15
asg9
Vfilter_size
p813
sa(dp814
g7
(lp815
I6
asg13
(lp816
g20
asg9
Vfilter_material
p817
sa(dp818
g7
(lp819
I7
asg13
(lp820
g85
asg9
Vfilter_shape
p821
sa(dp822
g7
(lp823
I8
asg9
g45
sasg46
g47
sg48
VThere is a big matte block; are there any large rubber cubes behind it?
p824
sg50
I10
sg51
I0
sa(dp825
g3
I00
sg4
(lp826
g169
ag170
ag174
ag178
ag182
a(dp827
g7
(lp828
I3
asg13
(lp829
g33
asg9
g34
sa(dp830
g7
(lp831
I5
asg13
(lp832
g15
asg9
Vfilter_size
p833
sa(dp834
g7
(lp835
I6
asg13
(lp836
g20
asg9
Vfilter_material
p837
sa(dp838
g7
(lp839
I7
asg9
g45
sasg46
g47
sg48
VThere is a large matte cube; are there any large rubber objects in front of it?
p840
sg50
I8
sg51
I0
sa(dp841
g3
I00
sg4
(lp842
g92
ag93
ag97
ag101
ag105
a(dp843
g7
(lp844
I3
asg13
(lp845
g73
asg9
g34
sa(dp846
g7
(lp847
I5
asg13
(lp848
g15
asg9
Vfilter_size
p849
sa(dp850
g7
(lp851
I6
asg13
(lp852
g20
asg9
Vfilter_material
p853
sa(dp854
g7
(lp855
I7
asg9
g45
sasg46
g47
sg48
VThere is a big rubber ball; are there any large matte objects to the left of it?
p856
sg50
I2
sg51
I0
sa(dp857
g3
I00
sg4
(lp858
(dp859
g7
g8
sg9
g10
sa(dp860
g7
(lp861
I0
asg13
(lp862
g15
asg9
Vfilter_size
p863
sa(dp864
g7
(lp865
I1
asg13
(lp866
g20
asg9
Vfilter_material
p867
sa(dp868
g7
(lp869
I2
asg13
(lp870
g85
asg9
Vfilter_shape
p871
sa(dp872
g7
(lp873
I3
asg9
g29
sa(dp874
g7
(lp875
I3
asg13
(lp876
g151
asg9
g34
sa(dp877
g7
(lp878
I5
asg13
(lp879
g15
asg9
Vfilter_size
p880
sa(dp881
g7
(lp882
I6
asg13
(lp883
g20
asg9
Vfilter_material
p884
sa(dp885
g7
(lp886
I7
asg13
(lp887
g85
asg9
Vfilter_shape
p888
sa(dp889
g7
(lp890
I8
asg9
g45
sasg46
g47
sg48
VThere is a big matte cube; are there any large matte blocks right of it?
p891
sg50
I7
sg51
I0
sa(dp892
g3
I00
sg4
(lp893
(dp894
g7
g8
sg9
g10
sa(dp895
g7
(lp896
I0
asg13
(lp897
g15
asg9
Vfilter_size
p898
sa(dp899
g7
(lp900
I1
asg13
(lp901
g20
asg9
Vfilter_material
p902
sa(dp903
g7
(lp904
I2
asg13
(lp905
g25
asg9
Vfilter_shape
p906
sa(dp907
g7
(lp908
I3
asg9
g29
sa(dp909
g7
(lp910
I3
asg13
(lp911
g33
asg9
g34
sa(dp912
g7
(lp913
I5
asg13
(lp914
g15
asg9
Vfilter_size
p915
sa(dp916
g7
(lp917
I6
asg13
(lp918
g20
asg9
Vfilter_material
p919
sa(dp920
g7
(lp921
I7
asg13
(lp922
g25
asg9
Vfilter_shape
p923
sa(dp924
g7
(lp925
I8
asg9
g45
sasg46
g47
sg48
VThere is a big rubber cylinder; are there any big rubber cylinders in front of it?
p926
sg50
I8
sg51
I0
sa(dp927
g3
I00
sg4
(lp928
g650
ag651
ag655
ag659
ag663
a(dp929
g7
(lp930
I3
asg13
(lp931
g130
asg9
g34
sa(dp932
g7
(lp933
I5
asg13
(lp934
g15
asg9
Vfilter_size
p935
sa(dp936
g7
(lp937
I6
asg13
(lp938
g20
asg9
Vfilter_material
p939
sa(dp940
g7
(lp941
I7
asg13
(lp942
g66
asg9
Vfilter_shape
p943
sa(dp944
g7
(lp945
I8
asg9
g45
sasg46
g47
sg48
VThere is a large matte cylinder; are there any large matte balls behind it?
p946
sg50
I2
sg51
I0
sa(dp947
g3
I01
sg4
(lp948
g559
ag685
ag689
ag693
ag697
a(dp949
g7
(lp950
I3
asg13
(lp951
g33
asg9
g34
sa(dp952
g7
(lp953
I5
asg13
(lp954
g15
asg9
Vfilter_size
p955
sa(dp956
g7
(lp957
I6
asg13
(lp958
g20
asg9
Vfilter_material
p959
sa(dp960
g7
(lp961
I7
asg13
(lp962
g85
asg9
Vfilter_shape
p963
sa(dp964
g7
(lp965
I8
asg9
g45
sasg46
g47
sg48
VThere is a big rubber cylinder; are there any large matte cubes in front of it?
p966
sg50
I4
sg51
I0
sa(dp967
g3
I01
sg4
(lp968
g256
ag257
ag261
ag265
ag269
a(dp969
g7
(lp970
I3
asg13
(lp971
g33
asg9
g34
sa(dp972
g7
(lp973
I5
asg13
(lp974
g15
asg9
Vfilter_size
p975
sa(dp976
g7
(lp977
I6
asg13
(lp978
g20
asg9
Vfilter_material
p979
sa(dp980
g7
(lp981
I7
asg13
(lp982
g66
asg9
Vfilter_shape
p983
sa(dp984
g7
(lp985
I8
asg9
g45
sasg46
g47
sg48
VThere is a big rubber cylinder; are there any large rubber spheres in front of it?
p986
sg50
I5
sg51
I0
sa(dp987
g3
I00
sg4
(lp988
g169
ag170
ag174
ag178
ag182
a(dp989
g7
(lp990
I3
asg13
(lp991
g33
asg9
g34
sa(dp992
g7
(lp993
I5
asg13
(lp994
g15
asg9
Vfilter_size
p995
sa(dp996
g7
(lp997
I6
asg13
(lp998
g20
asg9
Vfilter_material
p999
sa(dp1000
g7
(lp1001
I7
asg13
(lp1002
g66
asg9
Vfilter_shape
p1003
sa(dp1004
g7
(lp1005
I8
asg9
g45
sasg46
g47
sg48
VThere is a big rubber block; are there any large rubber balls in front of it?
p1006
sg50
I7
sg51
I0
sa(dp1007
g3
I00
sg4
(lp1008
g169
ag170
ag174
ag178
ag182
a(dp1009
g7
(lp1010
I3
asg13
(lp1011
g33
asg9
g34
sa(dp1012
g7
(lp1013
I5
asg13
(lp1014
g15
asg9
Vfilter_size
p1015
sa(dp1016
g7
(lp1017
I6
asg13
(lp1018
g20
asg9
Vfilter_material
p1019
sa(dp1020
g7
(lp1021
I7
asg13
(lp1022
g85
asg9
Vfilter_shape
p1023
sa(dp1024
g7
(lp1025
I8
asg9
g45
sasg46
g47
sg48
VThere is a large matte cube; are there any large rubber blocks in front of it?
p1026
sg50
I5
sg51
I0
sa(dp1027
g3
I00
sg4
(lp1028
g559
ag685
ag689
ag693
ag697
a(dp1029
g7
(lp1030
I3
asg13
(lp1031
g73
asg9
g34
sa(dp1032
g7
(lp1033
I5
asg13
(lp1034
g15
asg9
Vfilter_size
p1035
sa(dp1036
g7
(lp1037
I6
asg13
(lp1038
g20
asg9
Vfilter_material
p1039
sa(dp1040
g7
(lp1041
I7
asg13
(lp1042
g25
asg9
Vfilter_shape
p1043
sa(dp1044
g7
(lp1045
I8
asg9
g45
sasg46
g47
sg48
VThere is a large matte cylinder; are there any large rubber cylinders to the left of it?
p1046
sg50
I7
sg51
I0
sa(dp1047
g3
I00
sg4
(lp1048
g382
ag383
ag387
ag391
ag395
a(dp1049
g7
(lp1050
I3
asg13
(lp1051
g151
asg9
g34
sa(dp1052
g7
(lp1053
I5
asg13
(lp1054
g15
asg9
Vfilter_size
p1055
sa(dp1056
g7
(lp1057
I6
asg13
(lp1058
g20
asg9
Vfilter_material
p1059
sa(dp1060
g7
(lp1061
I7
asg13
(lp1062
g66
asg9
Vfilter_shape
p1063
sa(dp1064
g7
(lp1065
I8
asg9
g45
sasg46
g47
sg48
VThere is a big matte ball; are there any large rubber spheres on the right side of it?
p1066
sg50
I6
sg51
I0
sa(dp1067
g3
I01
sg4
(lp1068
g169
ag170
ag174
ag178
ag182
a(dp1069
g7
(lp1070
I3
asg13
(lp1071
g151
asg9
g34
sa(dp1072
g7
(lp1073
I5
asg13
(lp1074
g15
asg9
Vfilter_size
p1075
sa(dp1076
g7
(lp1077
I6
asg13
(lp1078
g20
asg9
Vfilter_material
p1079
sa(dp1080
g7
(lp1081
I7
asg13
(lp1082
g66
asg9
Vfilter_shape
p1083
sa(dp1084
g7
(lp1085
I8
asg9
g45
sasg46
g47
sg48
VThere is a big rubber block; are there any big matte balls right of it?
p1086
sg50
I3
sg51
I0
sa(dp1087
g3
I00
sg4
(lp1088
g311
ag312
ag316
ag320
ag324
a(dp1089
g7
(lp1090
I3
asg13
(lp1091
g151
asg9
g34
sa(dp1092
g7
(lp1093
I5
asg13
(lp1094
g15
asg9
Vfilter_size
p1095
sa(dp1096
g7
(lp1097
I6
asg13
(lp1098
g20
asg9
Vfilter_material
p1099
sa(dp1100
g7
(lp1101
I7
asg13
(lp1102
g25
asg9
Vfilter_shape
p1103
sa(dp1104
g7
(lp1105
I8
asg9
g45
sasg46
g47
sg48
VThere is a large rubber block; are there any large rubber cylinders right of it?
p1106
sg50
I0
sg51
I0
sa(dp1107
g3
I01
sg4
(lp1108
g169
ag170
ag174
ag178
ag182
a(dp1109
g7
(lp1110
I3
asg13
(lp1111
g130
asg9
g34
sa(dp1112
g7
(lp1113
I5
asg13
(lp1114
g15
asg9
Vfilter_size
p1115
sa(dp1116
g7
(lp1117
I6
asg13
(lp1118
g20
asg9
Vfilter_material
p1119
sa(dp1120
g7
(lp1121
I7
asg13
(lp1122
g66
asg9
Vfilter_shape
p1123
sa(dp1124
g7
(lp1125
I8
asg9
g45
sasg46
g47
sg48
VThere is a large rubber cube; are there any large rubber balls behind it?
p1126
sg50
I9
sg51
I0
sa(dp1127
g3
I01
sg4
(lp1128
g54
ag55
ag59
ag63
ag68
a(dp1129
g7
(lp1130
I3
asg13
(lp1131
g33
asg9
g34
sa(dp1132
g7
(lp1133
I5
asg13
(lp1134
g15
asg9
Vfilter_size
p1135
sa(dp1136
g7
(lp1137
I6
asg13
(lp1138
g20
asg9
Vfilter_material
p1139
sa(dp1140
g7
(lp1141
I7
asg13
(lp1142
g25
asg9
Vfilter_shape
p1143
sa(dp1144
g7
(lp1145
I8
asg9
g45
sasg46
g47
sg48
VThere is a large rubber ball; are there any big matte cylinders in front of it?
p1146
sg50
I7
sg51
I0
sa.