(dp1
S'program'
p2
(lp3
(lp4
(dp5
S'_output'
p6
(lp7
I0
aI1
aI2
aI3
aI4
asS'type'
p8
Vscene
p9
sS'inputs'
p10
(lp11
sa(dp12
g6
(lp13
I3
asg8
Vfilter_color
p14
sg10
(lp15
I0
asS'side_inputs'
p16
(lp17
Vpurple
p18
asa(dp19
g6
(lp20
I3
asg8
Vfilter_material
p21
sg10
(lp22
I1
asg16
(lp23
Vrubber
p24
asa(dp25
g6
(lp26
I3
asg8
Vfilter_shape
p27
sg10
(lp28
I2
asg16
(lp29
Vsphere
p30
asa(dp31
g6
I01
sg8
S'exist'
p32
sg10
(lp33
I3
asa(dp34
g6
(lp35
I0
aI4
asg8
S'relate'
p36
sg10
(lp37
I3
asg16
(lp38
S'right'
p39
asa(dp40
g6
(lp41
I0
asg8
Vfilter_color
p42
sg10
(lp43
I5
asg16
(lp44
S'red'
p45
asa(dp46
g6
(lp47
I0
asg8
Vfilter_shape
p48
sg10
(lp49
I6
asg16
(lp50
S'sphere'
p51
asa(dp52
g6
I01
sg8
g32
sg10
(lp53
I7
asaa(lp54
(dp55
g6
(lp56
I0
aI1
aI2
aI3
aI4
asg8
Vscene
p57
sg10
(lp58
sa(dp59
g6
(lp60
I0
asg8
Vfilter_color
p61
sg10
(lp62
I0
asg16
(lp63
g45
asa(dp64
g6
(lp65
I0
asg8
Vfilter_shape
p66
sg10
(lp67
I1
asg16
(lp68
g51
asa(dp69
g6
I01
sg8
g32
sg10
(lp70
I2
asa(dp71
g6
(lp72
I2
asg8
g36
sg10
(lp73
I2
asg16
(lp74
g39
asa(dp75
g6
(lp76
I2
asg8
Vfilter_color
p77
sg10
(lp78
I4
asg16
(lp79
S'green'
p80
asa(dp81
g6
(lp82
I2
asg8
Vfilter_material
p83
sg10
(lp84
I5
asg16
(lp85
S'rubber'
p86
asa(dp87
g6
(lp88
I2
asg8
Vfilter_shape
p89
sg10
(lp90
I6
asg16
(lp91
g51
asa(dp92
g6
I01
sg8
g32
sg10
(lp93
I7
asaa(lp94
(dp95
g6
(lp96
I0
aI1
aI2
aI3
aI4
asg8
Vscene
p97
sg10
(lp98
sa(dp99
g6
(lp100
I4
asg8
Vfilter_color
p101
sg10
(lp102
I0
asg16
(lp103
S'cyan'
p104
asa(dp105
g6
(lp106
I4
asg8
Vfilter_shape
p107
sg10
(lp108
I1
asg16
(lp109
g51
asa(dp110
g6
I01
sg8
g32
sg10
(lp111
I2
asa(dp112
g6
(lp113
I2
asg8
g36
sg10
(lp114
I2
asg16
(lp115
g39
asa(dp116
g6
(lp117
I2
asg8
Vfilter_color
p118
sg10
(lp119
I4
asg16
(lp120
g80
asa(dp121
g6
(lp122
I2
asg8
Vfilter_shape
p123
sg10
(lp124
I5
asg16
(lp125
g51
asa(dp126
g6
I01
sg8
g32
sg10
(lp127
I6
asaa(lp128
g95
ag99
ag105
ag110
a(dp129
g6
(lp130
I3
asg8
g36
sg10
(lp131
I2
asg16
(lp132
S'left'
p133
asa(dp134
g6
(lp135
I3
asg8
Vfilter_color
p136
sg10
(lp137
I4
asg16
(lp138
S'purple'
p139
asa(dp140
g6
(lp141
I3
asg8
Vfilter_material
p142
sg10
(lp143
I5
asg16
(lp144
g86
asa(dp145
g6
(lp146
I3
asg8
Vfilter_shape
p147
sg10
(lp148
I6
asg16
(lp149
g51
asa(dp150
g6
I01
sg8
g32
sg10
(lp151
I7
asaa(lp152
g5
ag12
ag19
ag25
ag31
a(dp153
g6
g35
sg8
g36
sg10
(lp154
I3
asg16
(lp155
g39
asa(dp156
g6
(lp157
I4
asg8
Vfilter_color
p158
sg10
(lp159
I5
asg16
(lp160
g104
asa(dp161
g6
(lp162
I4
asg8
Vfilter_shape
p163
sg10
(lp164
I6
asg16
(lp165
g51
asa(dp166
g6
I01
sg8
g32
sg10
(lp167
I7
asaa(lp168
(dp169
g6
(lp170
I0
aI1
aI2
aI3
aI4
asg8
Vscene
p171
sg10
(lp172
sa(dp173
g6
(lp174
I1
asg8
Vfilter_color
p175
sg10
(lp176
I0
asg16
(lp177
S'blue'
p178
asa(dp179
g6
(lp180
I1
asg8
Vfilter_material
p181
sg10
(lp182
I1
asg16
(lp183
g86
asa(dp184
g6
(lp185
I1
asg8
Vfilter_shape
p186
sg10
(lp187
I2
asg16
(lp188
g51
asa(dp189
g6
I01
sg8
g32
sg10
(lp190
I3
asa(dp191
g6
(lp192
I0
aI2
asg8
g36
sg10
(lp193
I3
asg16
(lp194
S'front'
p195
asa(dp196
g6
(lp197
I0
asg8
Vfilter_color
p198
sg10
(lp199
I5
asg16
(lp200
g45
asa(dp201
g6
(lp202
I0
asg8
Vfilter_shape
p203
sg10
(lp204
I6
asg16
(lp205
g51
asa(dp206
g6
I01
sg8
g32
sg10
(lp207
I7
asaa(lp208
(dp209
g6
(lp210
I0
aI1
aI2
aI3
aI4
asg8
Vscene
p211
sg10
(lp212
sa(dp213
g6
(lp214
I2
asg8
Vfilter_color
p215
sg10
(lp216
I0
asg16
(lp217
Vgreen
p218
asa(dp219
g6
(lp220
I2
asg8
Vfilter_material
p221
sg10
(lp222
I1
asg16
(lp223
g24
asa(dp224
g6
(lp225
I2
asg8
Vfilter_shape
p226
sg10
(lp227
I2
asg16
(lp228
g30
asa(dp229
g6
I01
sg8
g32
sg10
(lp230
I3
asa(dp231
g6
(lp232
I0
aI4
asg8
g36
sg10
(lp233
I3
asg16
(lp234
g133
asa(dp235
g6
(lp236
I0
asg8
Vfilter_color
p237
sg10
(lp238
I5
asg16
(lp239
g45
asa(dp240
g6
(lp241
I0
asg8
Vfilter_shape
p242
sg10
(lp243
I6
asg16
(lp244
g51
asa(dp245
g6
I01
sg8
g32
sg10
(lp246
I7
asaa(lp247
g169
ag173
ag179
ag184
ag189
a(dp248
g6
g192
sg8
g36
sg10
(lp249
I3
asg16
(lp250
g195
asa(dp251
g6
(lp252
I2
asg8
Vfilter_color
p253
sg10
(lp254
I5
asg16
(lp255
g80
asa(dp256
g6
(lp257
I2
asg8
Vfilter_material
p258
sg10
(lp259
I6
asg16
(lp260
g86
asa(dp261
g6
(lp262
I2
asg8
Vfilter_shape
p263
sg10
(lp264
I7
asg16
(lp265
g51
asa(dp266
g6
I01
sg8
g32
sg10
(lp267
I8
asaa(lp268
g95
ag99
ag105
ag110
a(dp269
g6
g130
sg8
g36
sg10
(lp270
I2
asg16
(lp271
g133
asa(dp272
g6
(lp273
I3
asg8
Vfilter_color
p274
sg10
(lp275
I4
asg16
(lp276
g139
asa(dp277
g6
(lp278
I3
asg8
Vfilter_shape
p279
sg10
(lp280
I5
asg16
(lp281
g51
asa(dp282
g6
I01
sg8
g32
sg10
(lp283
I6
asaa(lp284
g55
ag59
ag64
ag69
a(dp285
g6
(lp286
I1
asg8
g36
sg10
(lp287
I2
asg16
(lp288
S'behind'
p289
asa(dp290
g6
(lp291
I1
asg8
Vfilter_color
p292
sg10
(lp293
I4
asg16
(lp294
g178
asa(dp295
g6
(lp296
I1
asg8
Vfilter_shape
p297
sg10
(lp298
I5
asg16
(lp299
g51
asa(dp300
g6
I01
sg8
g32
sg10
(lp301
I6
asaasS'question'
p302
(lp303
VThere is a purple matte ball; are there any red balls right of it?
p304
aVThere is a red sphere; are there any green matte balls on the right side of it?
p305
aVThere is a cyan sphere, are there any green balls right of it?
p306
aVThere is a cyan sphere, are there any purple rubber spheres to the left of it?
p307
aVThere is a purple rubber sphere; are there any cyan balls right of it?
p308
aVThere is a blue rubber sphere; are there any red spheres in front of it?
p309
aVThere is a green matte sphere, are there any red balls on the left side of it?
p310
aVThere is a blue rubber sphere; are there any green matte spheres in front of it?
p311
aVThere is a cyan ball, are there any purple spheres left of it?
p312
aVThere is a red ball; are there any blue balls behind it?
p313
asS'scene_struct'
p314
(dp315
S'relationships'
p316
(dp317
g133
(lp318
(lp319
I3
aa(lp320
ag232
a(lp321
ag130
asg195
(lp322
(lp323
I4
aag192
a(lp324
a(lp325
a(lp326
asg289
(lp327
g286
a(lp328
a(lp329
I1
aa(lp330
a(lp331
I0
aasg39
(lp332
g72
a(lp333
a(lp334
ag35
ag113
assS'split'
p335
S'none'
p336
sS'_filter_options'
p337
(dp338
(Ng178
Ng51
tp339
c__builtin__
set
p340
((lp341
I1
atRp342
s(S'large'
p343
g178
g86
g51
tp344
g340
((lp345
I1
atRp346
s(g343
g80
Ng51
tp347
g340
((lp348
I2
atRp349
s(Ng80
NNtp350
g340
((lp351
I2
atRp352
s(g343
g80
g86
Ntp353
g340
((lp354
I2
atRp355
s(Ng178
g86
Ntp356
g340
((lp357
I1
atRp358
s(g343
g45
Ng51
tp359
g340
((lp360
I0
atRp361
s(Ng104
g86
Ntp362
g340
((lp363
I4
atRp364
s(g343
g178
Ng51
tp365
g340
((lp366
I1
atRp367
s(NNNg51
tp368
g340
((lp369
I0
aI1
aI2
aI3
aI4
atRp370
s(g343
g139
Ng51
tp371
g340
((lp372
I3
atRp373
s(g343
g139
g86
Ntp374
g340
((lp375
I3
atRp376
s(Ng104
Ng51
tp377
g340
((lp378
I4
atRp379
s(g343
Ng86
Ntp380
g340
((lp381
I0
aI1
aI2
aI3
aI4
atRp382
s(g343
NNg51
tp383
g340
((lp384
I0
aI1
aI2
aI3
aI4
atRp385
s(Ng80
g86
g51
tp386
g340
((lp387
I2
atRp388
s(Ng45
Ng51
tp389
g340
((lp390
I0
atRp391
s(g343
g45
g86
g51
tp392
g340
((lp393
I0
atRp394
s(NNg86
g51
tp395
g340
((lp396
I0
aI1
aI2
aI3
aI4
atRp397
s(g343
g104
NNtp398
g340
((lp399
I4
atRp400
s(Ng45
g86
Ntp401
g340
((lp402
I0
atRp403
s(Ng139
g86
g51
tp404
g340
((lp405
I3
atRp406
s(NNNNtp407
g340
((lp408
I0
aI1
aI2
aI3
aI4
atRp409
s(g343
g104
g86
g51
tp410
g340
((lp411
I4
atRp412
s(Ng80
Ng51
tp413
g340
((lp414
I2
atRp415
s(Ng139
Ng51
tp416
g340
((lp417
I3
atRp418
s(Ng139
NNtp419
g340
((lp420
I3
atRp421
s(Ng139
g86
Ntp422
g340
((lp423
I3
atRp424
s(g343
g45
NNtp425
g340
((lp426
I0
atRp427
s(Ng178
NNtp428
g340
((lp429
I1
atRp430
s(g343
g178
g86
Ntp431
g340
((lp432
I1
atRp433
s(Ng80
g86
Ntp434
g340
((lp435
I2
atRp436
s(g343
g80
NNtp437
g340
((lp438
I2
atRp439
s(g343
g80
g86
g51
tp440
g340
((lp441
I2
atRp442
s(g343
g104
Ng51
tp443
g340
((lp444
I4
atRp445
s(g343
Ng86
g51
tp446
g340
((lp447
I0
aI1
aI2
aI3
aI4
atRp448
s(g343
NNNtp449
g340
((lp450
I0
aI1
aI2
aI3
aI4
atRp451
s(Ng45
g86
g51
tp452
g340
((lp453
I0
atRp454
s(Ng45
NNtp455
g340
((lp456
I0
atRp457
s(Ng178
g86
g51
tp458
g340
((lp459
I1
atRp460
s(g343
g139
g86
g51
tp461
g340
((lp462
I3
atRp463
s(Ng104
g86
g51
tp464
g340
((lp465
I4
atRp466
s(g343
g178
NNtp467
g340
((lp468
I1
atRp469
s(g343
g104
g86
Ntp470
g340
((lp471
I4
atRp472
s(g343
g45
g86
Ntp473
g340
((lp474
I0
atRp475
s(g343
g139
NNtp476
g340
((lp477
I3
atRp478
s(NNg86
Ntp479
g340
((lp480
I0
aI1
aI2
aI3
aI4
atRp481
s(Ng104
NNtp482
g340
((lp483
I4
atRp484
ssS'objects'
p485
(lp486
(dp487
S'shape'
p488
g51
sS'3d_coords'
p489
(F-0.066443494056740104
F0.10650385215244201
F0.13
tp490
sS'color'
p491
g45
sS'material'
p492
g86
sS'color_val'
p493
S'1 0.1 0.1 1'
p494
sS'rotation'
p495
F299.05025847644754
sS'shape_name'
p496
g51
sS'size'
p497
g343
sa(dp498
g488
g51
sg489
(F0.14962169603990894
F-0.21097657342917875
F0.13
tp499
sg491
g178
sg492
g86
sg493
S'0.2 0.5 1 1'
p500
sg495
F4.4472419447870415
sg496
g51
sg497
g343
sa(dp501
g488
g51
sg489
(F0.29175745967193178
F0.22522726079252525
F0.13
tp502
sg491
g80
sg492
g86
sg493
S'0.2 1 0 1'
p503
sg495
F182.94846792741143
sg496
g51
sg497
g343
sa(dp504
g488
g51
sg489
(F-0.49958423591144008
F0.31254392248926782
F0.13
tp505
sg491
g139
sg492
g86
sg493
S'0.8 0.2 1 1'
p506
sg495
F230.00554067584534
sg496
g51
sg497
g343
sa(dp507
g488
g51
sg489
(F-0.16896493076163377
F0.49146669339358601
F0.13
tp508
sg491
g104
sg492
g86
sg493
S'0.2 1 1 1'
p509
sg495
F122.77622694823634
sg496
g51
sg497
g343
sasS'directions'
p510
(dp511
S'below'
p512
cnumpy.core.multiarray
_reconstruct
p513
(cnumpy
ndarray
p514
(I0
tS'b'
tRp515
(I1
(I3
tcnumpy
dtype
p516
(S'f8'
I0
I1
tRp517
(I3
S'<'
NNNI-1
I-1
I0
tbI00
S'\x00\x00\x00\x00\x00\x00\x00\x80\x00\x00\x00\x00\x00\x00\x00\x80\x00\x00\x00\x00\x00\x00\xf0\xbf'
tbsg289
g513
(g514
(I0
tS'b'
tRp518
(I1
(I3
tg517
I00
S'\xd7\x8e\x03\xbe\xa0\xf5\x88\xbc\x00\x00\x00\x00\x00\x00\xf0\xbf\x00\x00\x00\x00\x00\x00\x00\x00'
tbsg133
g513
(g514
(I0
tS'b'
tRp519
(I1
(I3
tg517
I00
S'\x00\x00\x00\x00\x00\x00\xf0\xbf\xd6\x8e\x03\xbe\xa0\xf5\x98<\x00\x00\x00\x00\x00\x00\x00\x00'
tbsg39
g513
(g514
(I0
tS'b'
tRp520
(I1
(I3
tg517
I00
S'\x00\x00\x00\x00\x00\x00\xf0?\xd6\x8e\x03\xbe\xa0\xf5\x98\xbc\x00\x00\x00\x00\x00\x00\x00\x80'
tbsg195
g513
(g514
(I0
tS'b'
tRp521
(I1
(I3
tg517
I00
S'\xd7\x8e\x03\xbe\xa0\xf5\x88<\x00\x00\x00\x00\x00\x00\xf0?\x00\x00\x00\x00\x00\x00\x00\x80'
tbsS'above'
p522
g513
(g514
(I0
tS'b'
tRp523
(I1
(I3
tg517
I00
S'\x00\x00\x00\x00\x00\x00\x00\x00\x00\x00\x00\x00\x00\x00\x00\x00\x00\x00\x00\x00\x00\x00\xf0?'
tbsss.