(dp1
S'program'
p2
(lp3
(lp4
(dp5
S'inputs'
p6
(lp7
sS'_output'
p8
(lp9
I0
aI1
aI2
aI3
aI4
asS'type'
p10
Vscene
p11
sa(dp12
g6
(lp13
I0
asS'side_inputs'
p14
(lp15
S'red'
p16
asg8
(lp17
I0
asg10
Vfilter_color
p18
sa(dp19
g6
(lp20
I1
asg14
(lp21
S'rubber'
p22
asg8
(lp23
I0
asg10
Vfilter_material
p24
sa(dp25
g6
(lp26
I2
asg8
I01
sg10
S'exist'
p27
sa(dp28
g6
(lp29
I2
asg14
(lp30
S'front'
p31
asg8
(lp32
I3
aI4
asg10
S'relate'
p33
sa(dp34
g6
(lp35
I4
asg14
(lp36
S'purple'
p37
asg8
(lp38
I3
asg10
Vfilter_color
p39
sa(dp40
g6
(lp41
I5
asg14
(lp42
g22
asg8
(lp43
I3
asg10
Vfilter_material
p44
sa(dp45
g6
(lp46
I6
asg8
I01
sg10
g27
saa(lp47
g5
a(dp48
g6
(lp49
I0
asg14
(lp50
g16
asg8
(lp51
I0
asg10
Vfilter_color
p52
sa(dp53
g6
(lp54
I1
asg14
(lp55
S'sphere'
p56
asg8
(lp57
I0
asg10
Vfilter_shape
p58
sa(dp59
g6
(lp60
I2
asg8
I01
sg10
g27
sa(dp61
g6
(lp62
I2
asg14
(lp63
S'behind'
p64
asg8
(lp65
I2
asg10
g33
sa(dp66
g6
(lp67
I4
asg14
(lp68
S'green'
p69
asg8
(lp70
I2
asg10
Vfilter_color
p71
sa(dp72
g6
(lp73
I5
asg8
I01
sg10
g27
saa(lp74
g5
ag48
ag53
ag59
a(dp75
g6
(lp76
I2
asg14
(lp77
g64
asg8
g65
sg10
g33
sa(dp78
g6
(lp79
I4
asg14
(lp80
g69
asg8
(lp81
I2
asg10
Vfilter_color
p82
sa(dp83
g6
(lp84
I5
asg14
(lp85
g22
asg8
(lp86
I2
asg10
Vfilter_material
p87
sa(dp88
g6
(lp89
I6
asg14
(lp90
g56
asg8
(lp91
I2
asg10
Vfilter_shape
p92
sa(dp93
g6
(lp94
I7
asg8
I01
sg10
g27
saa(lp95
g5
a(dp96
g6
(lp97
I0
asg14
(lp98
Vred
p99
asg8
(lp100
I0
asg10
Vfilter_color
p101
sa(dp102
g6
(lp103
I1
asg14
(lp104
Vrubber
p105
asg8
(lp106
I0
asg10
Vfilter_material
p107
sa(dp108
g6
(lp109
I2
asg14
(lp110
Vsphere
p111
asg8
(lp112
I0
asg10
Vfilter_shape
p113
sa(dp114
g6
(lp115
I3
asg8
I01
sg10
g27
sa(dp116
g6
(lp117
I3
asg14
(lp118
g31
asg8
g32
sg10
g33
sa(dp119
g6
(lp120
I5
asg14
(lp121
g37
asg8
(lp122
I3
asg10
Vfilter_color
p123
sa(dp124
g6
(lp125
I6
asg14
(lp126
g56
asg8
(lp127
I3
asg10
Vfilter_shape
p128
sa(dp129
g6
(lp130
I7
asg8
I01
sg10
g27
saa(lp131
g5
a(dp132
g6
(lp133
I0
asg14
(lp134
g16
asg8
(lp135
I0
asg10
Vfilter_color
p136
sa(dp137
g6
(lp138
I1
asg14
(lp139
g22
asg8
(lp140
I0
asg10
Vfilter_material
p141
sa(dp142
g6
(lp143
I2
asg14
(lp144
g56
asg8
(lp145
I0
asg10
Vfilter_shape
p146
sa(dp147
g6
(lp148
I3
asg8
I01
sg10
g27
sa(dp149
g6
(lp150
I3
asg14
(lp151
g64
asg8
g65
sg10
g33
sa(dp152
g6
(lp153
I5
asg14
(lp154
g69
asg8
(lp155
I2
asg10
Vfilter_color
p156
sa(dp157
g6
(lp158
I6
asg14
(lp159
g56
asg8
(lp160
I2
asg10
Vfilter_shape
p161
sa(dp162
g6
(lp163
I7
asg8
I01
sg10
g27
saa(lp164
g5
a(dp165
g6
(lp166
I0
asg14
(lp167
g99
asg8
(lp168
I0
asg10
Vfilter_color
p169
sa(dp170
g6
(lp171
I1
asg8
I01
sg10
g27
sa(dp172
g6
(lp173
I1
asg14
(lp174
g31
asg8
g32
sg10
g33
sa(dp175
g6
(lp176
I3
asg14
(lp177
g37
asg8
(lp178
I3
asg10
Vfilter_color
p179
sa(dp180
g6
(lp181
I4
asg14
(lp182
g22
asg8
(lp183
I3
asg10
Vfilter_material
p184
sa(dp185
g6
(lp186
I5
asg14
(lp187
g56
asg8
(lp188
I3
asg10
Vfilter_shape
p189
sa(dp190
g6
(lp191
I6
asg8
I01
sg10
g27
saa(lp192
g5
ag48
ag53
ag59
a(dp193
g6
(lp194
I2
asg14
(lp195
g31
asg8
g32
sg10
g33
sa(dp196
g6
(lp197
I4
asg14
(lp198
g37
asg8
(lp199
I3
asg10
Vfilter_color
p200
sa(dp201
g6
(lp202
I5
asg14
(lp203
g56
asg8
(lp204
I3
asg10
Vfilter_shape
p205
sa(dp206
g6
(lp207
I6
asg8
I01
sg10
g27
saa(lp208
g5
ag48
ag53
ag59
a(dp209
g6
(lp210
I2
asg14
(lp211
g64
asg8
g65
sg10
g33
sa(dp212
g6
(lp213
I4
asg14
(lp214
g69
asg8
(lp215
I2
asg10
Vfilter_color
p216
sa(dp217
g6
(lp218
I5
asg14
(lp219
g22
asg8
(lp220
I2
asg10
Vfilter_material
p221
sa(dp222
g6
(lp223
I6
asg8
I01
sg10
g27
saa(lp224
g5
a(dp225
g6
(lp226
I0
asg14
(lp227
g99
asg8
(lp228
I0
asg10
Vfilter_color
p229
sa(dp230
g6
(lp231
I1
asg14
(lp232
g105
asg8
(lp233
I0
asg10
Vfilter_material
p234
sa(dp235
g6
(lp236
I2
asg14
(lp237
g111
asg8
(lp238
I0
asg10
Vfilter_shape
p239
sa(dp240
g6
(lp241
I3
asg8
I01
sg10
g27
sa(dp242
g6
(lp243
I3
asg14
(lp244
S'right'
p245
asg8
(lp246
I2
aI3
asg10
g33
sa(dp247
g6
(lp248
I5
asg14
(lp249
g37
asg8
(lp250
I3
asg10
Vfilter_color
p251
sa(dp252
g6
(lp253
I6
asg8
I01
sg10
g27
saa(lp254
g5
a(dp255
g6
(lp256
I0
asg14
(lp257
g16
asg8
(lp258
I0
asg10
Vfilter_color
p259
sa(dp260
g6
(lp261
I1
asg8
I01
sg10
g27
sa(dp262
g6
(lp263
I1
asg14
(lp264
g245
asg8
g246
sg10
g33
sa(dp265
g6
(lp266
I3
asg14
(lp267
g37
asg8
(lp268
I3
asg10
Vfilter_color
p269
sa(dp270
g6
(lp271
I4
asg8
I01
sg10
g27
saa(lp272
g5
ag132
ag137
ag142
ag147
a(dp273
g6
(lp274
I3
asg14
(lp275
g245
asg8
g246
sg10
g33
sa(dp276
g6
(lp277
I5
asg14
(lp278
g37
asg8
(lp279
I3
asg10
Vfilter_color
p280
sa(dp281
g6
(lp282
I6
asg8
I01
sg10
g27
saa(lp283
g5
ag225
ag230
ag235
ag240
a(dp284
g6
(lp285
I3
asg14
(lp286
g64
asg8
g65
sg10
g33
sa(dp287
g6
(lp288
I5
asg14
(lp289
g69
asg8
(lp290
I2
asg10
Vfilter_color
p291
sa(dp292
g6
(lp293
I6
asg14
(lp294
g56
asg8
(lp295
I2
asg10
Vfilter_shape
p296
sa(dp297
g6
(lp298
I7
asg8
I01
sg10
g27
saa(lp299
g5
a(dp300
g6
(lp301
I0
asg14
(lp302
g99
asg8
(lp303
I0
asg10
Vfilter_color
p304
sa(dp305
g6
(lp306
I1
asg14
(lp307
g111
asg8
(lp308
I0
asg10
Vfilter_shape
p309
sa(dp310
g6
(lp311
I2
asg8
I01
sg10
g27
sa(dp312
g6
(lp313
I2
asg14
(lp314
g64
asg8
g65
sg10
g33
sa(dp315
g6
(lp316
I4
asg14
(lp317
g69
asg8
(lp318
I2
asg10
Vfilter_color
p319
sa(dp320
g6
(lp321
I5
asg8
I01
sg10
g27
saa(lp322
g5
ag96
ag102
ag108
ag114
a(dp323
g6
(lp324
I3
asg14
(lp325
g245
asg8
g246
sg10
g33
sa(dp326
g6
(lp327
I5
asg14
(lp328
g37
asg8
(lp329
I3
asg10
Vfilter_color
p330
sa(dp331
g6
(lp332
I6
asg14
(lp333
g22
asg8
(lp334
I3
asg10
Vfilter_material
p335
sa(dp336
g6
(lp337
I7
asg8
I01
sg10
g27
saa(lp338
g5
ag12
ag19
ag25
a(dp339
g6
(lp340
I2
asg14
(lp341
g245
asg8
g246
sg10
g33
sa(dp342
g6
(lp343
I4
asg14
(lp344
g69
asg8
(lp345
I2
asg10
Vfilter_color
p346
sa(dp347
g6
(lp348
I5
asg8
I01
sg10
g27
saa(lp349
g5
ag225
ag230
ag235
ag240
a(dp350
g6
(lp351
I3
asg14
(lp352
g245
asg8
g246
sg10
g33
sa(dp353
g6
(lp354
I5
asg14
(lp355
g69
asg8
(lp356
I2
asg10
Vfilter_color
p357
sa(dp358
g6
(lp359
I6
asg14
(lp360
g22
asg8
(lp361
I2
asg10
Vfilter_material
p362
sa(dp363
g6
(lp364
I7
asg8
I01
sg10
g27
saa(lp365
g5
a(dp366
g6
(lp367
I0
asg14
(lp368
g99
asg8
(lp369
I0
asg10
Vfilter_color
p370
sa(dp371
g6
(lp372
I1
asg14
(lp373
g111
asg8
(lp374
I0
asg10
Vfilter_shape
p375
sa(dp376
g6
(lp377
I2
asg8
I01
sg10
g27
sa(dp378
g6
(lp379
I2
asg14
(lp380
g31
asg8
g32
sg10
g33
sa(dp381
g6
(lp382
I4
asg14
(lp383
g37
asg8
(lp384
I3
asg10
Vfilter_color
p385
sa(dp386
g6
(lp387
I5
asg14
(lp388
g22
asg8
(lp389
I3
asg10
Vfilter_material
p390
sa(dp391
g6
(lp392
I6
asg8
I01
sg10
g27
saa(lp393
g5
ag225
ag230
ag235
ag240
a(dp394
g6
(lp395
I3
asg14
(lp396
g245
asg8
g246
sg10
g33
sa(dp397
g6
(lp398
I5
asg14
(lp399
g37
asg8
(lp400
I3
asg10
Vfilter_color
p401
sa(dp402
g6
(lp403
I6
asg14
(lp404
g56
asg8
(lp405
I3
asg10
Vfilter_shape
p406
sa(dp407
g6
(lp408
I7
asg8
I01
sg10
g27
saa(lp409
g5
ag165
ag170
a(dp410
g6
(lp411
I1
asg14
(lp412
g245
asg8
g246
sg10
g33
sa(dp413
g6
(lp414
I3
asg14
(lp415
g37
asg8
(lp416
I3
asg10
Vfilter_color
p417
sa(dp418
g6
(lp419
I4
asg14
(lp420
g22
asg8
(lp421
I3
asg10
Vfilter_material
p422
sa(dp423
g6
(lp424
I5
asg8
I01
sg10
g27
saa(lp425
g5
ag96
ag102
ag108
ag114
a(dp426
g6
(lp427
I3
asg14
(lp428
g64
asg8
g65
sg10
g33
sa(dp429
g6
(lp430
I5
asg14
(lp431
g69
asg8
(lp432
I2
asg10
Vfilter_color
p433
sa(dp434
g6
(lp435
I6
asg14
(lp436
g22
asg8
(lp437
I2
asg10
Vfilter_material
p438
sa(dp439
g6
(lp440
I7
asg8
I01
sg10
g27
saa(lp441
g5
ag48
ag53
ag59
a(dp442
g6
(lp443
I2
asg14
(lp444
g64
asg8
g65
sg10
g33
sa(dp445
g6
(lp446
I4
asg14
(lp447
g69
asg8
(lp448
I2
asg10
Vfilter_color
p449
sa(dp450
g6
(lp451
I5
asg14
(lp452
g56
asg8
(lp453
I2
asg10
Vfilter_shape
p454
sa(dp455
g6
(lp456
I6
asg8
I01
sg10
g27
saa(lp457
g5
ag225
ag230
ag235
ag240
a(dp458
g6
(lp459
I3
asg14
(lp460
g31
asg8
g32
sg10
g33
sa(dp461
g6
(lp462
I5
asg14
(lp463
g37
asg8
(lp464
I3
asg10
Vfilter_color
p465
sa(dp466
g6
(lp467
I6
asg8
I01
sg10
g27
saa(lp468
g5
ag132
ag137
ag142
ag147
a(dp469
g6
(lp470
I3
asg14
(lp471
g31
asg8
g32
sg10
g33
sa(dp472
g6
(lp473
I5
asg14
(lp474
g37
asg8
(lp475
I3
asg10
Vfilter_color
p476
sa(dp477
g6
(lp478
I6
asg14
(lp479
g56
asg8
(lp480
I3
asg10
Vfilter_shape
p481
sa(dp482
g6
(lp483
I7
asg8
I01
sg10
g27
saa(lp484
g5
ag165
ag170
a(dp485
g6
(lp486
I1
asg14
(lp487
g64
asg8
g65
sg10
g33
sa(dp488
g6
(lp489
I3
asg14
(lp490
g69
asg8
(lp491
I2
asg10
Vfilter_color
p492
sa(dp493
g6
(lp494
I4
asg14
(lp495
g22
asg8
(lp496
I2
asg10
Vfilter_material
p497
sa(dp498
g6
(lp499
I5
asg8
I01
sg10
g27
saa(lp500
g5
ag225
ag230
ag235
ag240
a(dp501
g6
(lp502
I3
asg14
(lp503
g31
asg8
g32
sg10
g33
sa(dp504
g6
(lp505
I5
asg14
(lp506
g37
asg8
(lp507
I3
asg10
Vfilter_color
p508
sa(dp509
g6
(lp510
I6
asg14
(lp511
g56
asg8
(lp512
I3
asg10
Vfilter_shape
p513
sa(dp514
g6
(lp515
I7
asg8
I01
sg10
g27
saa(lp516
g5
ag165
ag170
a(dp517
g6
(lp518
I1
asg14
(lp519
g64
asg8
g65
sg10
g33
sa(dp520
g6
(lp521
I3
asg14
(lp522
g69
asg8
(lp523
I2
asg10
Vfilter_color
p524
sa(dp525
g6
(lp526
I4
asg14
(lp527
g22
asg8
(lp528
I2
asg10
Vfilter_material
p529
sa(dp530
g6
(lp531
I5
asg14
(lp532
g56
asg8
(lp533
I2
asg10
Vfilter_shape
p534
sa(dp535
g6
(lp536
I6
asg8
I01
sg10
g27
saa(lp537
g5
ag225
ag230
ag235
ag240
a(dp538
g6
(lp539
I3
asg14
(lp540
g245
asg8
g246
sg10
g33
sa(dp541
g6
(lp542
I5
asg14
(lp543
g37
asg8
(lp544
I3
asg10
Vfilter_color
p545
sa(dp546
g6
(lp547
I6
asg14
(lp548
g22
asg8
(lp549
I3
asg10
Vfilter_material
p550
sa(dp551
g6
(lp552
I7
asg8
I01
sg10
g27
saa(lp553
g5
ag48
ag53
ag59
a(dp554
g6
(lp555
I2
asg14
(lp556
g245
asg8
g246
sg10
g33
sa(dp557
g6
(lp558
I4
asg14
(lp559
g69
asg8
(lp560
I2
asg10
Vfilter_color
p561
sa(dp562
g6
(lp563
I5
asg14
(lp564
g22
asg8
(lp565
I2
asg10
Vfilter_material
p566
sa(dp567
g6
(lp568
I6
asg14
(lp569
g56
asg8
(lp570
I2
asg10
Vfilter_shape
p571
sa(dp572
g6
(lp573
I7
asg8
I01
sg10
g27
saa(lp574
g5
ag300
ag305
ag310
a(dp575
g6
(lp576
I2
asg14
(lp577
g245
asg8
g246
sg10
g33
sa(dp578
g6
(lp579
I4
asg14
(lp580
g69
asg8
(lp581
I2
asg10
Vfilter_color
p582
sa(dp583
g6
(lp584
I5
asg8
I01
sg10
g27
saa(lp585
g5
ag132
ag137
ag142
ag147
a(dp586
g6
(lp587
I3
asg14
(lp588
g245
asg8
g246
sg10
g33
sa(dp589
g6
(lp590
I5
asg14
(lp591
g69
asg8
(lp592
I2
asg10
Vfilter_color
p593
sa(dp594
g6
(lp595
I6
asg14
(lp596
g22
asg8
(lp597
I2
asg10
Vfilter_material
p598
sa(dp599
g6
(lp600
I7
asg8
I01
sg10
g27
saa(lp601
g5
ag48
ag53
ag59
a(dp602
g6
(lp603
I2
asg14
(lp604
g245
asg8
g246
sg10
g33
sa(dp605
g6
(lp606
I4
asg14
(lp607
g69
asg8
(lp608
I2
asg10
Vfilter_color
p609
sa(dp610
g6
(lp611
I5
asg14
(lp612
g56
asg8
(lp613
I2
asg10
Vfilter_shape
p614
sa(dp615
g6
(lp616
I6
asg8
I01
sg10
g27
saa(lp617
g5
ag366
ag371
ag376
a(dp618
g6
(lp619
I2
asg14
(lp620
g245
asg8
g246
sg10
g33
sa(dp621
g6
(lp622
I4
asg14
(lp623
g69
asg8
(lp624
I2
asg10
Vfilter_color
p625
sa(dp626
g6
(lp627
I5
asg14
(lp628
g22
asg8
(lp629
I2
asg10
Vfilter_material
p630
sa(dp631
g6
(lp632
I6
asg8
I01
sg10
g27
saa(lp633
g5
ag366
ag371
ag376
a(dp634
g6
(lp635
I2
asg14
(lp636
g64
asg8
g65
sg10
g33
sa(dp637
g6
(lp638
I4
asg14
(lp639
g69
asg8
(lp640
I2
asg10
Vfilter_color
p641
sa(dp642
g6
(lp643
I5
asg8
I01
sg10
g27
saa(lp644
g5
ag165
ag170
a(dp645
g6
(lp646
I1
asg14
(lp647
g31
asg8
g32
sg10
g33
sa(dp648
g6
(lp649
I3
asg14
(lp650
g37
asg8
(lp651
I3
asg10
Vfilter_color
p652
sa(dp653
g6
(lp654
I4
asg14
(lp655
g56
asg8
(lp656
I3
asg10
Vfilter_shape
p657
sa(dp658
g6
(lp659
I5
asg8
I01
sg10
g27
saa(lp660
g5
ag165
ag170
a(dp661
g6
(lp662
I1
asg14
(lp663
g245
asg8
g246
sg10
g33
sa(dp664
g6
(lp665
I3
asg14
(lp666
g69
asg8
(lp667
I2
asg10
Vfilter_color
p668
sa(dp669
g6
(lp670
I4
asg8
I01
sg10
g27
saa(lp671
g5
ag96
ag102
ag108
ag114
a(dp672
g6
(lp673
I3
asg14
(lp674
g245
asg8
g246
sg10
g33
sa(dp675
g6
(lp676
I5
asg14
(lp677
g37
asg8
(lp678
I3
asg10
Vfilter_color
p679
sa(dp680
g6
(lp681
I6
asg14
(lp682
g56
asg8
(lp683
I3
asg10
Vfilter_shape
p684
sa(dp685
g6
(lp686
I7
asg8
I01
sg10
g27
saa(lp687
g5
ag255
ag260
a(dp688
g6
(lp689
I1
asg14
(lp690
g64
asg8
g65
sg10
g33
sa(dp691
g6
(lp692
I3
asg14
(lp693
g69
asg8
(lp694
I2
asg10
Vfilter_color
p695
sa(dp696
g6
(lp697
I4
asg14
(lp698
g22
asg8
(lp699
I2
asg10
Vfilter_material
p700
sa(dp701
g6
(lp702
I5
asg14
(lp703
g56
asg8
(lp704
I2
asg10
Vfilter_shape
p705
sa(dp706
g6
(lp707
I6
asg8
I01
sg10
g27
saa(lp708
g5
ag48
ag53
ag59
a(dp709
g6
(lp710
I2
asg14
(lp711
g31
asg8
g32
sg10
g33
sa(dp712
g6
(lp713
I4
asg14
(lp714
g37
asg8
(lp715
I3
asg10
Vfilter_color
p716
sa(dp717
g6
(lp718
I5
asg14
(lp719
g22
asg8
(lp720
I3
asg10
Vfilter_material
p721
sa(dp722
g6
(lp723
I6
asg8
I01
sg10
g27
saa(lp724
g5
ag300
ag305
ag310
a(dp725
g6
(lp726
I2
asg14
(lp727
g245
asg8
g246
sg10
g33
sa(dp728
g6
(lp729
I4
asg14
(lp730
g69
asg8
(lp731
I2
asg10
Vfilter_color
p732
sa(dp733
g6
(lp734
I5
asg14
(lp735
g56
asg8
(lp736
I2
asg10
Vfilter_shape
p737
sa(dp738
g6
(lp739
I6
asg8
I01
sg10
g27
saa(lp740
g5
ag255
ag260
a(dp741
g6
(lp742
I1
asg14
(lp743
g245
asg8
g246
sg10
g33
sa(dp744
g6
(lp745
I3
asg14
(lp746
g37
asg8
(lp747
I3
asg10
Vfilter_color
p748
sa(dp749
g6
(lp750
I4
asg14
(lp751
g22
asg8
(lp752
I3
asg10
Vfilter_material
p753
sa(dp754
g6
(lp755
I5
asg8
I01
sg10
g27
saa(lp756
g5
ag12
ag19
ag25
a(dp757
g6
(lp758
I2
asg14
(lp759
g245
asg8
g246
sg10
g33
sa(dp760
g6
(lp761
I4
asg14
(lp762
g37
asg8
(lp763
I3
asg10
Vfilter_color
p764
sa(dp765
g6
(lp766
I5
asg14
(lp767
g22
asg8
(lp768
I3
asg10
Vfilter_material
p769
sa(dp770
g6
(lp771
I6
asg8
I01
sg10
g27
saa(lp772
g5
ag300
ag305
ag310
a(dp773
g6
(lp774
I2
asg14
(lp775
g64
asg8
g65
sg10
g33
sa(dp776
g6
(lp777
I4
asg14
(lp778
g69
asg8
(lp779
I2
asg10
Vfilter_color
p780
sa(dp781
g6
(lp782
I5
asg14
(lp783
g56
asg8
(lp784
I2
asg10
Vfilter_shape
p785
sa(dp786
g6
(lp787
I6
asg8
I01
sg10
g27
saa(lp788
g5
ag255
ag260
a(dp789
g6
(lp790
I1
asg14
(lp791
g64
asg8
g65
sg10
g33
sa(dp792
g6
(lp793
I3
asg14
(lp794
g69
asg8
(lp795
I2
asg10
Vfilter_color
p796
sa(dp797
g6
(lp798
I4
asg14
(lp799
g22
asg8
(lp800
I2
asg10
Vfilter_material
p801
sa(dp802
g6
(lp803
I5
asg8
I01
sg10
g27
saa(lp804
g5
ag366
ag371
ag376
a(dp805
g6
(lp806
I2
asg14
(lp807
g31
asg8
g32
sg10
g33
sa(dp808
g6
(lp809
I4
asg14
(lp810
g37
asg8
(lp811
I3
asg10
Vfilter_color
p812
sa(dp813
g6
(lp814
I5
asg14
(lp815
g22
asg8
(lp816
I3
asg10
Vfilter_material
p817
sa(dp818
g6
(lp819
I6
asg14
(lp820
g56
asg8
(lp821
I3
asg10
Vfilter_shape
p822
sa(dp823
g6
(lp824
I7
asg8
I01
sg10
g27
saa(lp825
g5
ag96
ag102
ag108
ag114
a(dp826
g6
(lp827
I3
asg14
(lp828
g64
asg8
g65
sg10
g33
sa(dp829
g6
(lp830
I5
asg14
(lp831
g69
asg8
(lp832
I2
asg10
Vfilter_color
p833
sa(dp834
g6
(lp835
I6
asg8
I01
sg10
g27
saa(lp836
g5
ag225
ag230
ag235
ag240
a(dp837
g6
(lp838
I3
asg14
(lp839
g31
asg8
g32
sg10
g33
sa(dp840
g6
(lp841
I5
asg14
(lp842
g37
asg8
(lp843
I3
asg10
Vfilter_color
p844
sa(dp845
g6
(lp846
I6
asg14
(lp847
g22
asg8
(lp848
I3
asg10
Vfilter_material
p849
sa(dp850
g6
(lp851
I7
asg14
(lp852
g56
asg8
(lp853
I3
asg10
Vfilter_shape
p854
sa(dp855
g6
(lp856
I8
asg8
I01
sg10
g27
saa(lp857
g5
ag225
ag230
ag235
ag240
a(dp858
g6
(lp859
I3
asg14
(lp860
g31
asg8
g32
sg10
g33
sa(dp861
g6
(lp862
I5
asg14
(lp863
g37
asg8
(lp864
I3
asg10
Vfilter_color
p865
sa(dp866
g6
(lp867
I6
asg14
(lp868
g22
asg8
(lp869
I3
asg10
Vfilter_material
p870
sa(dp871
g6
(lp872
I7
asg8
I01
sg10
g27
saa(lp873
g5
ag366
ag371
ag376
a(dp874
g6
(lp875
I2
asg14
(lp876
g245
asg8
g246
sg10
g33
sa(dp877
g6
(lp878
I4
asg14
(lp879
g37
asg8
(lp880
I3
asg10
Vfilter_color
p881
sa(dp882
g6
(lp883
I5
asg8
I01
sg10
g27
saa(lp884
g5
ag300
ag305
ag310
a(dp885
g6
(lp886
I2
asg14
(lp887
g31
asg8
g32
sg10
g33
sa(dp888
g6
(lp889
I4
asg14
(lp890
g37
asg8
(lp891
I3
asg10
Vfilter_color
p892
sa(dp893
g6
(lp894
I5
asg14
(lp895
g22
asg8
(lp896
I3
asg10
Vfilter_material
p897
sa(dp898
g6
(lp899
I6
asg8
I01
sg10
g27
saa(lp900
g5
ag48
ag53
ag59
a(dp901
g6
(lp902
I2
asg14
(lp903
g31
asg8
g32
sg10
g33
sa(dp904
g6
(lp905
I4
asg14
(lp906
g37
asg8
(lp907
I3
asg10
Vfilter_color
p908
sa(dp909
g6
(lp910
I5
asg14
(lp911
g22
asg8
(lp912
I3
asg10
Vfilter_material
p913
sa(dp914
g6
(lp915
I6
asg14
(lp916
g56
asg8
(lp917
I3
asg10
Vfilter_shape
p918
sa(dp919
g6
(lp920
I7
asg8
I01
sg10
g27
saa(lp921
g5
ag225
ag230
ag235
ag240
a(dp922
g6
(lp923
I3
asg14
(lp924
g64
asg8
g65
sg10
g33
sa(dp925
g6
(lp926
I5
asg14
(lp927
g69
asg8
(lp928
I2
asg10
Vfilter_color
p929
sa(dp930
g6
(lp931
I6
asg14
(lp932
g22
asg8
(lp933
I2
asg10
Vfilter_material
p934
sa(dp935
g6
(lp936
I7
asg8
I01
sg10
g27
saa(lp937
g5
ag132
ag137
ag142
ag147
a(dp938
g6
(lp939
I3
asg14
(lp940
g31
asg8
g32
sg10
g33
sa(dp941
g6
(lp942
I5
asg14
(lp943
g37
asg8
(lp944
I3
asg10
Vfilter_color
p945
sa(dp946
g6
(lp947
I6
asg8
I01
sg10
g27
saa(lp948
g5
ag225
ag230
ag235
ag240
a(dp949
g6
(lp950
I3
asg14
(lp951
g64
asg8
g65
sg10
g33
sa(dp952
g6
(lp953
I5
asg14
(lp954
g69
asg8
(lp955
I2
asg10
Vfilter_color
p956
sa(dp957
g6
(lp958
I6
asg8
I01
sg10
g27
saa(lp959
g5
ag366
ag371
ag376
a(dp960
g6
(lp961
I2
asg14
(lp962
g31
asg8
g32
sg10
g33
sa(dp963
g6
(lp964
I4
asg14
(lp965
g37
asg8
(lp966
I3
asg10
Vfilter_color
p967
sa(dp968
g6
(lp969
I5
asg14
(lp970
g56
asg8
(lp971
I3
asg10
Vfilter_shape
p972
sa(dp973
g6
(lp974
I6
asg8
I01
sg10
g27
saa(lp975
g5
ag132
ag137
ag142
ag147
a(dp976
g6
(lp977
I3
asg14
(lp978
g245
asg8
g246
sg10
g33
sa(dp979
g6
(lp980
I5
asg14
(lp981
g69
asg8
(lp982
I2
asg10
Vfilter_color
p983
sa(dp984
g6
(lp985
I6
asg14
(lp986
g56
asg8
(lp987
I2
asg10
Vfilter_shape
p988
sa(dp989
g6
(lp990
I7
asg8
I01
sg10
g27
saa(lp991
g5
ag96
ag102
ag108
ag114
a(dp992
g6
(lp993
I3
asg14
(lp994
g64
asg8
g65
sg10
g33
sa(dp995
g6
(lp996
I5
asg14
(lp997
g69
asg8
(lp998
I2
asg10
Vfilter_color
p999
sa(dp1000
g6
(lp1001
I6
asg14
(lp1002
g56
asg8
(lp1003
I2
asg10
Vfilter_shape
p1004
sa(dp1005
g6
(lp1006
I7
asg8
I01
sg10
g27
saa(lp1007
g5
ag12
ag19
ag25
a(dp1008
g6
(lp1009
I2
asg14
(lp1010
g245
asg8
g246
sg10
g33
sa(dp1011
g6
(lp1012
I4
asg14
(lp1013
g37
asg8
(lp1014
I3
asg10
Vfilter_color
p1015
sa(dp1016
g6
(lp1017
I5
asg14
(lp1018
g22
asg8
(lp1019
I3
asg10
Vfilter_material
p1020
sa(dp1021
g6
(lp1022
I6
asg14
(lp1023
g56
asg8
(lp1024
I3
asg10
Vfilter_shape
p1025
sa(dp1026
g6
(lp1027
I7
asg8
I01
sg10
g27
saa(lp1028
g5
ag165
ag170
a(dp1029
g6
(lp1030
I1
asg14
(lp1031
g31
asg8
g32
sg10
g33
sa(dp1032
g6
(lp1033
I3
asg14
(lp1034
g37
asg8
(lp1035
I3
asg10
Vfilter_color
p1036
sa(dp1037
g6
(lp1038
I4
asg14
(lp1039
g22
asg8
(lp1040
I3
asg10
Vfilter_material
p1041
sa(dp1042
g6
(lp1043
I5
asg8
I01
sg10
g27
saa(lp1044
g5
ag255
ag260
a(dp1045
g6
(lp1046
I1
asg14
(lp1047
g245
asg8
g246
sg10
g33
sa(dp1048
g6
(lp1049
I3
asg14
(lp1050
g69
asg8
(lp1051
I2
asg10
Vfilter_color
p1052
sa(dp1053
g6
(lp1054
I4
asg14
(lp1055
g56
asg8
(lp1056
I2
asg10
Vfilter_shape
p1057
sa(dp1058
g6
(lp1059
I5
asg8
I01
sg10
g27
saa(lp1060
g5
ag300
ag305
ag310
a(dp1061
g6
(lp1062
I2
asg14
(lp1063
g245
asg8
g246
sg10
g33
sa(dp1064
g6
(lp1065
I4
asg14
(lp1066
g69
asg8
(lp1067
I2
asg10
Vfilter_color
p1068
sa(dp1069
g6
(lp1070
I5
asg14
(lp1071
g22
asg8
(lp1072
I2
asg10
Vfilter_material
p1073
sa(dp1074
g6
(lp1075
I6
asg8
I01
sg10
g27
saa(lp1076
g5
ag165
ag170
a(dp1077
g6
(lp1078
I1
asg14
(lp1079
g31
asg8
g32
sg10
g33
sa(dp1080
g6
(lp1081
I3
asg14
(lp1082
g37
asg8
(lp1083
I3
asg10
Vfilter_color
p1084
sa(dp1085
g6
(lp1086
I4
asg8
I01
sg10
g27
saa(lp1087
g5
ag48
ag53
ag59
a(dp1088
g6
(lp1089
I2
asg14
(lp1090
g245
asg8
g246
sg10
g33
sa(dp1091
g6
(lp1092
I4
asg14
(lp1093
g37
asg8
(lp1094
I3
asg10
Vfilter_color
p1095
sa(dp1096
g6
(lp1097
I5
asg14
(lp1098
g22
asg8
(lp1099
I3
asg10
Vfilter_material
p1100
sa(dp1101
g6
(lp1102
I6
asg8
I01
sg10
g27
saa(lp1103
g5
ag300
ag305
ag310
a(dp1104
g6
(lp1105
I2
asg14
(lp1106
g245
asg8
g246
sg10
g33
sa(dp1107
g6
(lp1108
I4
asg14
(lp1109
g37
asg8
(lp1110
I3
asg10
Vfilter_color
p1111
sa(dp1112
g6
(lp1113
I5
asg14
(lp1114
g56
asg8
(lp1115
I3
asg10
Vfilter_shape
p1116
sa(dp1117
g6
(lp1118
I6
asg8
I01
sg10
g27
saa(lp1119
g5
ag96
ag102
ag108
ag114
a(dp1120
g6
(lp1121
I3
asg14
(lp1122
g64
asg8
g65
sg10
g33
sa(dp1123
g6
(lp1124
I5
asg14
(lp1125
g69
asg8
(lp1126
I2
asg10
Vfilter_color
p1127
sa(dp1128
g6
(lp1129
I6
asg14
(lp1130
g22
asg8
(lp1131
I2
asg10
Vfilter_material
p1132
sa(dp1133
g6
(lp1134
I7
asg14
(lp1135
g56
asg8
(lp1136
I2
asg10
Vfilter_shape
p1137
sa(dp1138
g6
(lp1139
I8
asg8
I01
sg10
g27
saa(lp1140
g5
ag225
ag230
ag235
ag240
a(dp1141
g6
(lp1142
I3
asg14
(lp1143
g245
asg8
g246
sg10
g33
sa(dp1144
g6
(lp1145
I5
asg14
(lp1146
g69
asg8
(lp1147
I2
asg10
Vfilter_color
p1148
sa(dp1149
g6
(lp1150
I6
asg14
(lp1151
g22
asg8
(lp1152
I2
asg10
Vfilter_material
p1153
sa(dp1154
g6
(lp1155
I7
asg14
(lp1156
g56
asg8
(lp1157
I2
asg10
Vfilter_shape
p1158
sa(dp1159
g6
(lp1160
I8
asg8
I01
sg10
g27
saa(lp1161
g5
ag300
ag305
ag310
a(dp1162
g6
(lp1163
I2
asg14
(lp1164
g64
asg8
g65
sg10
g33
sa(dp1165
g6
(lp1166
I4
asg14
(lp1167
g69
asg8
(lp1168
I2
asg10
Vfilter_color
p1169
sa(dp1170
g6
(lp1171
I5
asg14
(lp1172
g22
asg8
(lp1173
I2
asg10
Vfilter_material
p1174
sa(dp1175
g6
(lp1176
I6
asg14
(lp1177
g56
asg8
(lp1178
I2
asg10
Vfilter_shape
p1179
sa(dp1180
g6
(lp1181
I7
asg8
I01
sg10
g27
saa(lp1182
g5
ag300
ag305
ag310
a(dp1183
g6
(lp1184
I2
asg14
(lp1185
g31
asg8
g32
sg10
g33
sa(dp1186
g6
(lp1187
I4
asg14
(lp1188
g37
asg8
(lp1189
I3
asg10
Vfilter_color
p1190
sa(dp1191
g6
(lp1192
I5
asg8
I01
sg10
g27
saa(lp1193
g5
ag165
ag170
a(dp1194
g6
(lp1195
I1
asg14
(lp1196
g64
asg8
g65
sg10
g33
sa(dp1197
g6
(lp1198
I3
asg14
(lp1199
g69
asg8
(lp1200
I2
asg10
Vfilter_color
p1201
sa(dp1202
g6
(lp1203
I4
asg8
I01
sg10
g27
saa(lp1204
g5
ag96
ag102
ag108
ag114
a(dp1205
g6
(lp1206
I3
asg14
(lp1207
g245
asg8
g246
sg10
g33
sa(dp1208
g6
(lp1209
I5
asg14
(lp1210
g37
asg8
(lp1211
I3
asg10
Vfilter_color
p1212
sa(dp1213
g6
(lp1214
I6
asg8
I01
sg10
g27
saa(lp1215
g5
ag366
ag371
ag376
a(dp1216
g6
(lp1217
I2
asg14
(lp1218
g64
asg8
g65
sg10
g33
sa(dp1219
g6
(lp1220
I4
asg14
(lp1221
g69
asg8
(lp1222
I2
asg10
Vfilter_color
p1223
sa(dp1224
g6
(lp1225
I5
asg14
(lp1226
g22
asg8
(lp1227
I2
asg10
Vfilter_material
p1228
sa(dp1229
g6
(lp1230
I6
asg14
(lp1231
g56
asg8
(lp1232
I2
asg10
Vfilter_shape
p1233
sa(dp1234
g6
(lp1235
I7
asg8
I01
sg10
g27
saa(lp1236
g5
ag366
ag371
ag376
a(dp1237
g6
(lp1238
I2
asg14
(lp1239
g64
asg8
g65
sg10
g33
sa(dp1240
g6
(lp1241
I4
asg14
(lp1242
g69
asg8
(lp1243
I2
asg10
Vfilter_color
p1244
sa(dp1245
g6
(lp1246
I5
asg14
(lp1247
g56
asg8
(lp1248
I2
asg10
Vfilter_shape
p1249
sa(dp1250
g6
(lp1251
I6
asg8
I01
sg10
g27
saa(lp1252
g5
ag255
ag260
a(dp1253
g6
(lp1254
I1
asg14
(lp1255
g31
asg8
g32
sg10
g33
sa(dp1256
g6
(lp1257
I3
asg14
(lp1258
g37
asg8
(lp1259
I3
asg10
Vfilter_color
p1260
sa(dp1261
g6
(lp1262
I4
asg14
(lp1263
g56
asg8
(lp1264
I3
asg10
Vfilter_shape
p1265
sa(dp1266
g6
(lp1267
I5
asg8
I01
sg10
g27
saa(lp1268
g5
ag132
ag137
ag142
ag147
a(dp1269
g6
(lp1270
I3
asg14
(lp1271
g245
asg8
g246
sg10
g33
sa(dp1272
g6
(lp1273
I5
asg14
(lp1274
g37
asg8
(lp1275
I3
asg10
Vfilter_color
p1276
sa(dp1277
g6
(lp1278
I6
asg14
(lp1279
g22
asg8
(lp1280
I3
asg10
Vfilter_material
p1281
sa(dp1282
g6
(lp1283
I7
asg14
(lp1284
g56
asg8
(lp1285
I3
asg10
Vfilter_shape
p1286
sa(dp1287
g6
(lp1288
I8
asg8
I01
sg10
g27
saa(lp1289
g5
ag12
ag19
ag25
a(dp1290
g6
(lp1291
I2
asg14
(lp1292
g64
asg8
g65
sg10
g33
sa(dp1293
g6
(lp1294
I4
asg14
(lp1295
g69
asg8
(lp1296
I2
asg10
Vfilter_color
p1297
sa(dp1298
g6
(lp1299
I5
asg14
(lp1300
g22
asg8
(lp1301
I2
asg10
Vfilter_material
p1302
sa(dp1303
g6
(lp1304
I6
asg8
I01
sg10
g27
saa(lp1305
g5
ag12
ag19
ag25
a(dp1306
g6
(lp1307
I2
asg14
(lp1308
g64
asg8
g65
sg10
g33
sa(dp1309
g6
(lp1310
I4
asg14
(lp1311
g69
asg8
(lp1312
I2
asg10
Vfilter_color
p1313
sa(dp1314
g6
(lp1315
I5
asg14
(lp1316
g56
asg8
(lp1317
I2
asg10
Vfilter_shape
p1318
sa(dp1319
g6
(lp1320
I6
asg8
I01
sg10
g27
saa(lp1321
g5
ag48
ag53
ag59
a(dp1322
g6
(lp1323
I2
asg14
(lp1324
g245
asg8
g246
sg10
g33
sa(dp1325
g6
(lp1326
I4
asg14
(lp1327
g37
asg8
(lp1328
I3
asg10
Vfilter_color
p1329
sa(dp1330
g6
(lp1331
I5
asg14
(lp1332
g22
asg8
(lp1333
I3
asg10
Vfilter_material
p1334
sa(dp1335
g6
(lp1336
I6
asg14
(lp1337
g56
asg8
(lp1338
I3
asg10
Vfilter_shape
p1339
sa(dp1340
g6
(lp1341
I7
asg8
I01
sg10
g27
saa(lp1342
g5
ag300
ag305
ag310
a(dp1343
g6
(lp1344
I2
asg14
(lp1345
g31
asg8
g32
sg10
g33
sa(dp1346
g6
(lp1347
I4
asg14
(lp1348
g37
asg8
(lp1349
I3
asg10
Vfilter_color
p1350
sa(dp1351
g6
(lp1352
I5
asg14
(lp1353
g56
asg8
(lp1354
I3
asg10
Vfilter_shape
p1355
sa(dp1356
g6
(lp1357
I6
asg8
I01
sg10
g27
saa(lp1358
g5
ag96
ag102
ag108
ag114
a(dp1359
g6
(lp1360
I3
asg14
(lp1361
g245
asg8
g246
sg10
g33
sa(dp1362
g6
(lp1363
I5
asg14
(lp1364
g69
asg8
(lp1365
I2
asg10
Vfilter_color
p1366
sa(dp1367
g6
(lp1368
I6
asg14
(lp1369
g56
asg8
(lp1370
I2
asg10
Vfilter_shape
p1371
sa(dp1372
g6
(lp1373
I7
asg8
I01
sg10
g27
saa(lp1374
g5
ag132
ag137
ag142
ag147
a(dp1375
g6
(lp1376
I3
asg14
(lp1377
g245
asg8
g246
sg10
g33
sa(dp1378
g6
(lp1379
I5
asg14
(lp1380
g37
asg8
(lp1381
I3
asg10
Vfilter_color
p1382
sa(dp1383
g6
(lp1384
I6
asg14
(lp1385
g22
asg8
(lp1386
I3
asg10
Vfilter_material
p1387
sa(dp1388
g6
(lp1389
I7
asg8
I01
sg10
g27
saa(lp1390
g5
ag132
ag137
ag142
ag147
a(dp1391
g6
(lp1392
I3
asg14
(lp1393
g31
asg8
g32
sg10
g33
sa(dp1394
g6
(lp1395
I5
asg14
(lp1396
g37
asg8
(lp1397
I3
asg10
Vfilter_color
p1398
sa(dp1399
g6
(lp1400
I6
asg14
(lp1401
g22
asg8
(lp1402
I3
asg10
Vfilter_material
p1403
sa(dp1404
g6
(lp1405
I7
asg8
I01
sg10
g27
saa(lp1406
g5
ag132
ag137
ag142
ag147
a(dp1407
g6
(lp1408
I3
asg14
(lp1409
g245
asg8
g246
sg10
g33
sa(dp1410
g6
(lp1411
I5
asg14
(lp1412
g69
asg8
(lp1413
I2
asg10
Vfilter_color
p1414
sa(dp1415
g6
(lp1416
I6
asg8
I01
sg10
g27
saa(lp1417
g5
ag366
ag371
ag376
a(dp1418
g6
(lp1419
I2
asg14
(lp1420
g64
asg8
g65
sg10
g33
sa(dp1421
g6
(lp1422
I4
asg14
(lp1423
g69
asg8
(lp1424
I2
asg10
Vfilter_color
p1425
sa(dp1426
g6
(lp1427
I5
asg14
(lp1428
g22
asg8
(lp1429
I2
asg10
Vfilter_material
p1430
sa(dp1431
g6
(lp1432
I6
asg8
I01
sg10
g27
saa(lp1433
g5
ag366
ag371
ag376
a(dp1434
g6
(lp1435
I2
asg14
(lp1436
g31
asg8
g32
sg10
g33
sa(dp1437
g6
(lp1438
I4
asg14
(lp1439
g37
asg8
(lp1440
I3
asg10
Vfilter_color
p1441
sa(dp1442
g6
(lp1443
I5
asg8
I01
sg10
g27
saa(lp1444
g5
ag255
ag260
a(dp1445
g6
(lp1446
I1
asg14
(lp1447
g31
asg8
g32
sg10
g33
sa(dp1448
g6
(lp1449
I3
asg14
(lp1450
g37
asg8
(lp1451
I3
asg10
Vfilter_color
p1452
sa(dp1453
g6
(lp1454
I4
asg14
(lp1455
g22
asg8
(lp1456
I3
asg10
Vfilter_material
p1457
sa(dp1458
g6
(lp1459
I5
asg14
(lp1460
g56
asg8
(lp1461
I3
asg10
Vfilter_shape
p1462
sa(dp1463
g6
(lp1464
I6
asg8
I01
sg10
g27
saa(lp1465
g5
ag300
ag305
ag310
a(dp1466
g6
(lp1467
I2
asg14
(lp1468
g31
asg8
g32
sg10
g33
sa(dp1469
g6
(lp1470
I4
asg14
(lp1471
g37
asg8
(lp1472
I3
asg10
Vfilter_color
p1473
sa(dp1474
g6
(lp1475
I5
asg14
(lp1476
g22
asg8
(lp1477
I3
asg10
Vfilter_material
p1478
sa(dp1479
g6
(lp1480
I6
asg14
(lp1481
g56
asg8
(lp1482
I3
asg10
Vfilter_shape
p1483
sa(dp1484
g6
(lp1485
I7
asg8
I01
sg10
g27
saa(lp1486
g5
ag255
ag260
a(dp1487
g6
(lp1488
I1
asg14
(lp1489
g245
asg8
g246
sg10
g33
sa(dp1490
g6
(lp1491
I3
asg14
(lp1492
g69
asg8
(lp1493
I2
asg10
Vfilter_color
p1494
sa(dp1495
g6
(lp1496
I4
asg8
I01
sg10
g27
saa(lp1497
g5
ag255
ag260
a(dp1498
g6
(lp1499
I1
asg14
(lp1500
g31
asg8
g32
sg10
g33
sa(dp1501
g6
(lp1502
I3
asg14
(lp1503
g37
asg8
(lp1504
I3
asg10
Vfilter_color
p1505
sa(dp1506
g6
(lp1507
I4
asg8
I01
sg10
g27
saa(lp1508
g5
ag165
ag170
a(dp1509
g6
(lp1510
I1
asg14
(lp1511
g245
asg8
g246
sg10
g33
sa(dp1512
g6
(lp1513
I3
asg14
(lp1514
g37
asg8
(lp1515
I3
asg10
Vfilter_color
p1516
sa(dp1517
g6
(lp1518
I4
asg14
(lp1519
g22
asg8
(lp1520
I3
asg10
Vfilter_material
p1521
sa(dp1522
g6
(lp1523
I5
asg14
(lp1524
g56
asg8
(lp1525
I3
asg10
Vfilter_shape
p1526
sa(dp1527
g6
(lp1528
I6
asg8
I01
sg10
g27
saa(lp1529
g5
ag366
ag371
ag376
a(dp1530
g6
(lp1531
I2
asg14
(lp1532
g245
asg8
g246
sg10
g33
sa(dp1533
g6
(lp1534
I4
asg14
(lp1535
g69
asg8
(lp1536
I2
asg10
Vfilter_color
p1537
sa(dp1538
g6
(lp1539
I5
asg8
I01
sg10
g27
saa(lp1540
g5
ag132
ag137
ag142
ag147
a(dp1541
g6
(lp1542
I3
asg14
(lp1543
g64
asg8
g65
sg10
g33
sa(dp1544
g6
(lp1545
I5
asg14
(lp1546
g69
asg8
(lp1547
I2
asg10
Vfilter_color
p1548
sa(dp1549
g6
(lp1550
I6
asg8
I01
sg10
g27
saa(lp1551
g5
ag96
ag102
ag108
ag114
a(dp1552
g6
(lp1553
I3
asg14
(lp1554
g31
asg8
g32
sg10
g33
sa(dp1555
g6
(lp1556
I5
asg14
(lp1557
g37
asg8
(lp1558
I3
asg10
Vfilter_color
p1559
sa(dp1560
g6
(lp1561
I6
asg14
(lp1562
g22
asg8
(lp1563
I3
asg10
Vfilter_material
p1564
sa(dp1565
g6
(lp1566
I7
asg8
I01
sg10
g27
saa(lp1567
g5
ag366
ag371
ag376
a(dp1568
g6
(lp1569
I2
asg14
(lp1570
g245
asg8
g246
sg10
g33
sa(dp1571
g6
(lp1572
I4
asg14
(lp1573
g37
asg8
(lp1574
I3
asg10
Vfilter_color
p1575
sa(dp1576
g6
(lp1577
I5
asg14
(lp1578
g22
asg8
(lp1579
I3
asg10
Vfilter_material
p1580
sa(dp1581
g6
(lp1582
I6
asg14
(lp1583
g56
asg8
(lp1584
I3
asg10
Vfilter_shape
p1585
sa(dp1586
g6
(lp1587
I7
asg8
I01
sg10
g27
saa(lp1588
g5
ag300
ag305
ag310
a(dp1589
g6
(lp1590
I2
asg14
(lp1591
g245
asg8
g246
sg10
g33
sa(dp1592
g6
(lp1593
I4
asg14
(lp1594
g37
asg8
(lp1595
I3
asg10
Vfilter_color
p1596
sa(dp1597
g6
(lp1598
I5
asg14
(lp1599
g22
asg8
(lp1600
I3
asg10
Vfilter_material
p1601
sa(dp1602
g6
(lp1603
I6
asg14
(lp1604
g56
asg8
(lp1605
I3
asg10
Vfilter_shape
p1606
sa(dp1607
g6
(lp1608
I7
asg8
I01
sg10
g27
saa(lp1609
g5
ag255
ag260
a(dp1610
g6
(lp1611
I1
asg14
(lp1612
g64
asg8
g65
sg10
g33
sa(dp1613
g6
(lp1614
I3
asg14
(lp1615
g69
asg8
(lp1616
I2
asg10
Vfilter_color
p1617
sa(dp1618
g6
(lp1619
I4
asg14
(lp1620
g56
asg8
(lp1621
I2
asg10
Vfilter_shape
p1622
sa(dp1623
g6
(lp1624
I5
asg8
I01
sg10
g27
saa(lp1625
g5
ag300
ag305
ag310
a(dp1626
g6
(lp1627
I2
asg14
(lp1628
g245
asg8
g246
sg10
g33
sa(dp1629
g6
(lp1630
I4
asg14
(lp1631
g37
asg8
(lp1632
I3
asg10
Vfilter_color
p1633
sa(dp1634
g6
(lp1635
I5
asg8
I01
sg10
g27
saa(lp1636
g5
ag132
ag137
ag142
ag147
a(dp1637
g6
(lp1638
I3
asg14
(lp1639
g31
asg8
g32
sg10
g33
sa(dp1640
g6
(lp1641
I5
asg14
(lp1642
g37
asg8
(lp1643
I3
asg10
Vfilter_color
p1644
sa(dp1645
g6
(lp1646
I6
asg14
(lp1647
g22
asg8
(lp1648
I3
asg10
Vfilter_material
p1649
sa(dp1650
g6
(lp1651
I7
asg14
(lp1652
g56
asg8
(lp1653
I3
asg10
Vfilter_shape
p1654
sa(dp1655
g6
(lp1656
I8
asg8
I01
sg10
g27
saa(lp1657
g5
ag12
ag19
ag25
a(dp1658
g6
(lp1659
I2
asg14
(lp1660
g64
asg8
g65
sg10
g33
sa(dp1661
g6
(lp1662
I4
asg14
(lp1663
g69
asg8
(lp1664
I2
asg10
Vfilter_color
p1665
sa(dp1666
g6
(lp1667
I5
asg14
(lp1668
g22
asg8
(lp1669
I2
asg10
Vfilter_material
p1670
sa(dp1671
g6
(lp1672
I6
asg14
(lp1673
g56
asg8
(lp1674
I2
asg10
Vfilter_shape
p1675
sa(dp1676
g6
(lp1677
I7
asg8
I01
sg10
g27
saa(lp1678
g5
ag12
ag19
ag25
a(dp1679
g6
(lp1680
I2
asg14
(lp1681
g31
asg8
g32
sg10
g33
sa(dp1682
g6
(lp1683
I4
asg14
(lp1684
g37
asg8
(lp1685
I3
asg10
Vfilter_color
p1686
sa(dp1687
g6
(lp1688
I5
asg8
I01
sg10
g27
saa(lp1689
g5
ag165
ag170
a(dp1690
g6
(lp1691
I1
asg14
(lp1692
g245
asg8
g246
sg10
g33
sa(dp1693
g6
(lp1694
I3
asg14
(lp1695
g69
asg8
(lp1696
I2
asg10
Vfilter_color
p1697
sa(dp1698
g6
(lp1699
I4
asg14
(lp1700
g22
asg8
(lp1701
I2
asg10
Vfilter_material
p1702
sa(dp1703
g6
(lp1704
I5
asg8
I01
sg10
g27
saa(lp1705
g5
ag12
ag19
ag25
a(dp1706
g6
(lp1707
I2
asg14
(lp1708
g245
asg8
g246
sg10
g33
sa(dp1709
g6
(lp1710
I4
asg14
(lp1711
g69
asg8
(lp1712
I2
asg10
Vfilter_color
p1713
sa(dp1714
g6
(lp1715
I5
asg14
(lp1716
g22
asg8
(lp1717
I2
asg10
Vfilter_material
p1718
sa(dp1719
g6
(lp1720
I6
asg14
(lp1721
g56
asg8
(lp1722
I2
asg10
Vfilter_shape
p1723
sa(dp1724
g6
(lp1725
I7
asg8
I01
sg10
g27
saasS'question'
p1726
(lp1727
VThere is a red rubber thing; are there any purple rubber objects in front of it?
p1728
aVThere is a red ball; are there any green objects behind it?
p1729
aVThere is a red ball; are there any green matte spheres behind it?
p1730
aVThere is a red rubber sphere; are there any purple spheres in front of it?
p1731
aVThere is a red matte ball; are there any green spheres behind it?
p1732
aVThere is a red thing; are there any purple matte balls in front of it?
p1733
aVThere is a red ball; are there any purple spheres in front of it?
p1734
aVThere is a red ball; are there any green rubber objects behind it?
p1735
aVThere is a red rubber ball; are there any purple objects right of it?
p1736
aVThere is a red object; are there any purple things right of it?
p1737
aVThere is a red matte ball; are there any purple things right of it?
p1738
aVThere is a red rubber sphere; are there any green spheres behind it?
p1739
aVThere is a red ball; are there any green things behind it?
p1740
aVThere is a red rubber ball; are there any purple rubber objects to the right of it?
p1741
aVThere is a red rubber object; are there any green things to the right of it?
p1742
aVThere is a red matte sphere; are there any green rubber objects on the right side of it?
p1743
aVThere is a red ball; are there any purple rubber objects in front of it?
p1744
aVThere is a red rubber sphere; are there any purple balls to the right of it?
p1745
aVThere is a red object; are there any purple matte things on the right side of it?
p1746
aVThere is a red matte sphere; are there any green matte things behind it?
p1747
aVThere is a red ball; are there any green balls behind it?
p1748
aVThere is a red rubber sphere; are there any purple things in front of it?
p1749
aVThere is a red matte sphere; are there any purple spheres in front of it?
p1750
aVThere is a red object; are there any green rubber objects behind it?
p1751
aVThere is a red rubber sphere; are there any purple balls in front of it?
p1752
aVThere is a red object; are there any green matte balls behind it?
p1753
aVThere is a red matte ball; are there any purple matte things on the right side of it?
p1754
aVThere is a red ball; are there any green rubber balls right of it?
p1755
aVThere is a red ball; are there any green objects to the right of it?
p1756
aVThere is a red rubber ball; are there any green matte things right of it?
p1757
aVThere is a red ball; are there any green balls right of it?
p1758
aVThere is a red sphere; are there any green matte objects on the right side of it?
p1759
aVThere is a red ball; are there any green things behind it?
p1760
aVThere is a red object; are there any purple balls in front of it?
p1761
aVThere is a red object; are there any green things on the right side of it?
p1762
aVThere is a red matte ball; are there any purple balls right of it?
p1763
aVThere is a red thing; are there any green rubber balls behind it?
p1764
aVThere is a red sphere; are there any purple rubber things in front of it?
p1765
aVThere is a red ball; are there any green spheres on the right side of it?
p1766
aVThere is a red object; are there any purple matte objects right of it?
p1767
aVThere is a red matte thing; are there any purple matte things to the right of it?
p1768
aVThere is a red ball; are there any green balls behind it?
p1769
aVThere is a red thing; are there any green matte things behind it?
p1770
aVThere is a red sphere; are there any purple matte balls in front of it?
p1771
aVThere is a red rubber ball; are there any green things behind it?
p1772
aVThere is a red rubber ball; are there any purple matte balls in front of it?
p1773
aVThere is a red matte ball; are there any purple rubber objects in front of it?
p1774
aVThere is a red sphere; are there any purple objects right of it?
p1775
aVThere is a red ball; are there any purple matte things in front of it?
p1776
aVThere is a red ball; are there any purple matte balls in front of it?
p1777
aVThere is a red rubber sphere; are there any green matte things behind it?
p1778
aVThere is a red rubber ball; are there any purple things in front of it?
p1779
aVThere is a red rubber ball; are there any green objects behind it?
p1780
aVThere is a red ball; are there any purple balls in front of it?
p1781
aVThere is a red matte sphere; are there any green spheres right of it?
p1782
aVThere is a red rubber ball; are there any green balls behind it?
p1783
aVThere is a red matte object; are there any purple rubber spheres to the right of it?
p1784
aVThere is a red object; are there any purple rubber objects in front of it?
p1785
aVThere is a red object; are there any green balls right of it?
p1786
aVThere is a red ball; are there any green rubber objects right of it?
p1787
aVThere is a red object; are there any purple objects in front of it?
p1788
aVThere is a red sphere; are there any purple matte objects on the right side of it?
p1789
aVThere is a red ball; are there any purple spheres to the right of it?
p1790
aVThere is a red rubber ball; are there any green matte balls behind it?
p1791
aVThere is a red rubber ball; are there any green rubber balls on the right side of it?
p1792
aVThere is a red sphere; are there any green matte spheres behind it?
p1793
aVThere is a red ball; are there any purple things in front of it?
p1794
aVThere is a red thing; are there any green objects behind it?
p1795
aVThere is a red rubber ball; are there any purple things on the right side of it?
p1796
aVThere is a red ball; are there any green matte balls behind it?
p1797
aVThere is a red sphere; are there any green balls behind it?
p1798
aVThere is a red object; are there any purple spheres in front of it?
p1799
aVThere is a red matte ball; are there any purple matte spheres to the right of it?
p1800
aVThere is a red rubber object; are there any green rubber things behind it?
p1801
aVThere is a red rubber thing; are there any green spheres behind it?
p1802
aVThere is a red ball; are there any purple rubber spheres on the right side of it?
p1803
aVThere is a red sphere; are there any purple spheres in front of it?
p1804
aVThere is a red matte ball; are there any green balls on the right side of it?
p1805
aVThere is a red rubber sphere; are there any purple matte things right of it?
p1806
aVThere is a red rubber ball; are there any purple matte objects in front of it?
p1807
aVThere is a red matte ball; are there any green things right of it?
p1808
aVThere is a red sphere; are there any green rubber objects behind it?
p1809
aVThere is a red sphere; are there any purple things in front of it?
p1810
aVThere is a red object; are there any purple matte balls in front of it?
p1811
aVThere is a red ball; are there any purple rubber spheres in front of it?
p1812
aVThere is a red thing; are there any green things right of it?
p1813
aVThere is a red object; are there any purple things in front of it?
p1814
aVThere is a red object; are there any purple matte spheres right of it?
p1815
aVThere is a red ball; are there any green objects to the right of it?
p1816
aVThere is a red rubber ball; are there any green objects behind it?
p1817
aVThere is a red matte ball; are there any purple matte things in front of it?
p1818
aVThere is a red ball; are there any purple matte balls right of it?
p1819
aVThere is a red ball; are there any purple rubber balls on the right side of it?
p1820
aVThere is a red thing; are there any green spheres behind it?
p1821
aVThere is a red sphere; are there any purple things on the right side of it?
p1822
aVThere is a red matte ball; are there any purple matte spheres in front of it?
p1823
aVThere is a red rubber thing; are there any green matte balls behind it?
p1824
aVThere is a red rubber object; are there any purple objects in front of it?
p1825
aVThere is a red object; are there any green matte objects right of it?
p1826
aVThere is a red matte thing; are there any green matte spheres right of it?
p1827
asS'scene_struct'
p1828
(dp1829
S'split'
p1830
S'none'
p1831
sS'relationships'
p1832
(dp1833
S'left'
p1834
(lp1835
(lp1836
I1
aa(lp1837
a(lp1838
I0
aa(lp1839
I0
aI4
aa(lp1840
asg64
(lp1841
g65
a(lp1842
a(lp1843
a(lp1844
I0
aI2
aa(lp1845
I0
aI1
aasg245
(lp1846
g246
a(lp1847
I0
aa(lp1848
a(lp1849
a(lp1850
I3
aasg31
(lp1851
g32
a(lp1852
I4
aa(lp1853
I0
aI3
aa(lp1854
a(lp1855
assS'objects'
p1856
(lp1857
(dp1858
S'3d_coords'
p1859
(F0.048598388609279231
F0.066677414925950917
F0.13
tp1860
sS'shape'
p1861
g56
sS'size'
p1862
S'large'
p1863
sS'color'
p1864
g16
sS'color_val'
p1865
S'1 0.1 0.1 1'
p1866
sS'material'
p1867
g22
sS'rotation'
p1868
F314.06260205058038
sS'shape_name'
p1869
g56
sa(dp1870
g1859
(F-0.41418888989707858
F-0.07990540950220032
F0.13
tp1871
sg1861
g56
sg1862
g1863
sg1864
S'blue'
p1872
sg1865
S'0.2 0.5 1 1'
p1873
sg1867
g22
sg1868
F336.90554868856231
sg1869
g56
sa(dp1874
g1859
(F0.28425773707834534
F-0.2133658829772283
F0.13
tp1875
sg1861
g56
sg1862
g1863
sg1864
g69
sg1865
S'0.2 1 0 1'
p1876
sg1867
g22
sg1868
F67.120461213398102
sg1869
g56
sa(dp1877
g1859
(F0.43457756413026749
F0.40369774977892031
F0.13
tp1878
sg1861
g56
sg1862
g1863
sg1864
g37
sg1865
S'0.8 0.2 1 1'
p1879
sg1867
g22
sg1868
F228.41139082533599
sg1869
g56
sa(dp1880
g1859
(F-0.11372237716995137
F0.42411852470562422
F0.13
tp1881
sg1861
g56
sg1862
g1863
sg1864
S'cyan'
p1882
sg1865
S'0.2 1 1 1'
p1883
sg1867
g22
sg1868
F127.26326142494896
sg1869
g56
sasS'_filter_options'
p1884
(dp1885
(Ng37
g22
Ntp1886
c__builtin__
set
p1887
((lp1888
I3
atRp1889
s(Ng69
Ng56
tp1890
g1887
((lp1891
I2
atRp1892
s(g1863
g16
NNtp1893
g1887
((lp1894
I0
atRp1895
s(Ng1882
Ng56
tp1896
g1887
((lp1897
I4
atRp1898
s(g1863
g37
g22
Ntp1899
g1887
((lp1900
I3
atRp1901
s(Ng1872
g22
Ntp1902
g1887
((lp1903
I1
atRp1904
s(g1863
g69
Ng56
tp1905
g1887
((lp1906
I2
atRp1907
s(Ng37
NNtp1908
g1887
((lp1909
I3
atRp1910
s(g1863
g1872
Ng56
tp1911
g1887
((lp1912
I1
atRp1913
s(Ng1882
g22
Ntp1914
g1887
((lp1915
I4
atRp1916
s(g1863
NNg56
tp1917
g1887
((lp1918
I0
aI1
aI2
aI3
aI4
atRp1919
s(g1863
g1882
Ng56
tp1920
g1887
((lp1921
I4
atRp1922
s(NNNg56
tp1923
g1887
((lp1924
I0
aI1
aI2
aI3
aI4
atRp1925
s(g1863
g69
NNtp1926
g1887
((lp1927
I2
atRp1928
s(Ng16
g22
g56
tp1929
g1887
((lp1930
I0
atRp1931
s(Ng1882
g22
g56
tp1932
g1887
((lp1933
I4
atRp1934
s(g1863
g37
g22
g56
tp1935
g1887
((lp1936
I3
atRp1937
s(Ng37
Ng56
tp1938
g1887
((lp1939
I3
atRp1940
s(Ng16
Ng56
tp1941
g1887
((lp1942
I0
atRp1943
s(g1863
g69
g22
g56
tp1944
g1887
((lp1945
I2
atRp1946
s(NNNNtp1947
g1887
((lp1948
I0
aI1
aI2
aI3
aI4
atRp1949
s(g1863
g1882
g22
g56
tp1950
g1887
((lp1951
I4
atRp1952
s(g1863
g1872
g22
g56
tp1953
g1887
((lp1954
I1
atRp1955
s(g1863
g1882
NNtp1956
g1887
((lp1957
I4
atRp1958
s(g1863
g1882
g22
Ntp1959
g1887
((lp1960
I4
atRp1961
s(Ng1882
NNtp1962
g1887
((lp1963
I4
atRp1964
s(Ng69
g22
Ntp1965
g1887
((lp1966
I2
atRp1967
s(Ng69
NNtp1968
g1887
((lp1969
I2
atRp1970
s(Ng1872
NNtp1971
g1887
((lp1972
I1
atRp1973
s(g1863
g16
g22
g56
tp1974
g1887
((lp1975
I0
atRp1976
s(NNg22
Ntp1977
g1887
((lp1978
I0
aI1
aI2
aI3
aI4
atRp1979
s(NNg22
g56
tp1980
g1887
((lp1981
I0
aI1
aI2
aI3
aI4
atRp1982
s(g1863
g69
g22
Ntp1983
g1887
((lp1984
I2
atRp1985
s(g1863
g37
NNtp1986
g1887
((lp1987
I3
atRp1988
s(g1863
g16
Ng56
tp1989
g1887
((lp1990
I0
atRp1991
s(g1863
NNNtp1992
g1887
((lp1993
I0
aI1
aI2
aI3
aI4
atRp1994
s(Ng1872
g22
g56
tp1995
g1887
((lp1996
I1
atRp1997
s(g1863
g16
g22
Ntp1998
g1887
((lp1999
I0
atRp2000
s(Ng1872
Ng56
tp2001
g1887
((lp2002
I1
atRp2003
s(g1863
Ng22
Ntp2004
g1887
((lp2005
I0
aI1
aI2
aI3
aI4
atRp2006
s(Ng16
g22
Ntp2007
g1887
((lp2008
I0
atRp2009
s(g1863
g1872
g22
Ntp2010
g1887
((lp2011
I1
atRp2012
s(Ng16
NNtp2013
g1887
((lp2014
I0
atRp2015
s(g1863
g37
Ng56
tp2016
g1887
((lp2017
I3
atRp2018
s(Ng37
g22
g56
tp2019
g1887
((lp2020
I3
atRp2021
s(g1863
g1872
NNtp2022
g1887
((lp2023
I1
atRp2024
s(g1863
Ng22
g56
tp2025
g1887
((lp2026
I0
aI1
aI2
aI3
aI4
atRp2027
s(Ng69
g22
g56
tp2028
g1887
((lp2029
I2
atRp2030
ssS'directions'
p2031
(dp2032
g245
cnumpy.core.multiarray
_reconstruct
p2033
(cnumpy
ndarray
p2034
(I0
tS'b'
tRp2035
(I1
(I3
tcnumpy
dtype
p2036
(S'f8'
I0
I1
tRp2037
(I3
S'<'
NNNI-1
I-1
I0
tbI00
S'\x00\x00\x00\x00\x00\x00\xf0?\xd6\x8e\x03\xbe\xa0\xf5\x98\xbc\x00\x00\x00\x00\x00\x00\x00\x80'
tbsg1834
g2033
(g2034
(I0
tS'b'
tRp2038
(I1
(I3
tg2037
I00
S'\x00\x00\x00\x00\x00\x00\xf0\xbf\xd6\x8e\x03\xbe\xa0\xf5\x98<\x00\x00\x00\x00\x00\x00\x00\x00'
tbsg64
g2033
(g2034
(I0
tS'b'
tRp2039
(I1
(I3
tg2037
I00
S'\xd7\x8e\x03\xbe\xa0\xf5\x88\xbc\x00\x00\x00\x00\x00\x00\xf0\xbf\x00\x00\x00\x00\x00\x00\x00\x00'
tbsS'below'
p2040
g2033
(g2034
(I0
tS'b'
tRp2041
(I1
(I3
tg2037
I00
S'\x00\x00\x00\x00\x00\x00\x00\x80\x00\x00\x00\x00\x00\x00\x00\x80\x00\x00\x00\x00\x00\x00\xf0\xbf'
tbsg31
g2033
(g2034
(I0
tS'b'
tRp2042
(I1
(I3
tg2037
I00
S'\xd7\x8e\x03\xbe\xa0\xf5\x88<\x00\x00\x00\x00\x00\x00\xf0?\x00\x00\x00\x00\x00\x00\x00\x80'
tbsS'above'
p2043
g2033
(g2034
(I0
tS'b'
tRp2044
(I1
(I3
tg2037
I00
S'\x00\x00\x00\x00\x00\x00\x00\x00\x00\x00\x00\x00\x00\x00\x00\x00\x00\x00\x00\x00\x00\x00\xf0?'
tbsss.